00000000000ba948 T _Z11replace_allRNSt6__ndk112basic_stringIcNS_11char_traitsIcEENS_9allocatorIcEEEERKS5_S8_
00000000000862c4 T _Z13llm_arch_name8llm_arch
00000000000cd8e8 T _Z13llm_type_name8llm_type
00000000000bb16c T _Z14gguf_kv_to_strPK12gguf_contexti
00000000000c2100 T _Z14llama_path_maxv
0000000000132d28 T _Z15unicode_tolowerj
0000000000130e64 T _Z16unicode_len_utf8c
00000000000ba800 T _Z18llama_log_internal14ggml_log_levelPKcz
0000000000086430 T _Z19llm_tensor_info_for10llm_tensor
00000000001311a0 T _Z19unicode_cpt_to_utf8j
0000000000132d90 T _Z19unicode_regex_splitRKNSt6__ndk112basic_stringIcNS_11char_traitsIcEENS_9allocatorIcEEEERKNS_6vectorIS5_NS3_IS5_EEEE
00000000000a1454 T _Z20llama_grammar_acceptP13llama_grammarj
00000000000c0034 T _Z20llama_kv_cache_clearP14llama_kv_cache
0000000000086338 T _Z20llm_arch_from_stringRKNSt6__ndk112basic_stringIcNS_11char_traitsIcEENS_9allocatorIcEEEE
0000000000131c7c T _Z20unicode_byte_to_utf8h
0000000000132638 T _Z20unicode_utf8_to_byteRKNSt6__ndk112basic_stringIcNS_11char_traitsIcEENS_9allocatorIcEEEE
00000000000c00c4 T _Z21llama_kv_cache_defragP14llama_kv_cache
00000000000c0060 T _Z21llama_kv_cache_seq_cpP14llama_kv_cacheiiii
00000000000c0048 T _Z21llama_kv_cache_seq_rmP14llama_kv_cacheiii
0000000000130e78 T _Z21unicode_cpt_from_utf8RKNSt6__ndk112basic_stringIcNS_11char_traitsIcEENS_9allocatorIcEEEERm
00000000000c0088 T _Z22llama_kv_cache_seq_addP14llama_kv_cacheiiii
00000000000c009c T _Z22llama_kv_cache_seq_divP14llama_kv_cacheiiii
0000000000131474 T _Z22unicode_cpts_from_utf8RKNSt6__ndk112basic_stringIcNS_11char_traitsIcEENS_9allocatorIcEEEE
00000000000c263c T _Z23llama_file_version_name10llama_fver
00000000000a4f24 T _Z23llama_grammar_free_implP13llama_grammar
00000000000a1444 T _Z23llama_grammar_get_rulesPK13llama_grammar
00000000000a3c5c T _Z23llama_grammar_init_implPK11llama_vocabPKcS3_bPS3_mPKim
00000000000a31b8 T _Z23llama_grammar_init_implPK11llama_vocabPPK21llama_grammar_elementmm
00000000000c000c T _Z23llama_kv_cache_n_tokensPK14llama_kv_cache
00000000000c0074 T _Z23llama_kv_cache_seq_keepP14llama_kv_cachei
000000000008d370 T _Z23llm_chat_apply_template17llm_chat_templateRKNSt6__ndk16vectorIPK18llama_chat_messageNS0_9allocatorIS4_EEEERNS0_12basic_stringIcNS0_11char_traitsIcEENS5_IcEEEEb
00000000000a682c T _Z24llama_grammar_accept_strR13llama_grammarRKNSt6__ndk112basic_stringIcNS1_11char_traitsIcEENS1_9allocatorIcEEEE
00000000000a55a4 T _Z24llama_grammar_apply_implRK13llama_grammarP22llama_token_data_array
00000000000a50d8 T _Z24llama_grammar_clone_implRK13llama_grammar
00000000000a144c T _Z24llama_grammar_get_stacksP13llama_grammar
00000000000c00d8 T _Z24llama_kv_cache_can_shiftPK14llama_kv_cache
00000000000c00ec T _Z24llama_kv_cache_view_initRK14llama_kv_cachei
000000000008cc10 T _Z24llm_chat_detect_templateRKNSt6__ndk112basic_stringIcNS_11char_traitsIcEENS_9allocatorIcEEEE
00000000000bafd0 T _Z25llama_format_tensor_shapePK11ggml_tensor
00000000000bad94 T _Z25llama_format_tensor_shapeRKNSt6__ndk16vectorIlNS_9allocatorIlEEEE
00000000000a6340 T _Z25llama_grammar_accept_implR13llama_grammari
00000000000c0020 T _Z25llama_kv_cache_used_cellsPK14llama_kv_cache
00000000000c00b0 T _Z26llama_kv_cache_seq_pos_maxP14llama_kv_cachei
00000000000c0168 T _Z26llama_kv_cache_view_updateP19llama_kv_cache_viewPK14llama_kv_cache
00000000000ba7cc T _Z26llama_log_callback_default14ggml_log_levelPKcPv
000000000008cb04 T _Z26llm_chat_template_from_strRKNSt6__ndk112basic_stringIcNS_11char_traitsIcEENS_9allocatorIcEEEE
00000000001318f0 T _Z26unicode_cpt_flags_from_cptj
00000000001312ec T _Z26unicode_cpts_normalize_nfdRKNSt6__ndk16vectorIjNS_9allocatorIjEEEE
0000000000131ba4 T _Z27unicode_cpt_flags_from_utf8RKNSt6__ndk112basic_stringIcNS_11char_traitsIcEENS_9allocatorIcEEEE
00000000000eaf1c T _Z29llama_internal_get_tensor_mapPK11llama_model
000000000010b1b8 T _Z30llama_sampler_init_dry_testingiffiiRKNSt6__ndk16vectorINS0_IiNS_9allocatorIiEEEENS1_IS3_EEEE
00000000000a2100 T _Z41llama_grammar_reject_candidates_for_stackRKNSt6__ndk16vectorINS0_I21llama_grammar_elementNS_9allocatorIS1_EEEENS2_IS4_EEEERKNS0_IPKS1_NS2_ISA_EEEERKNS0_I23llama_grammar_candidateNS2_ISF_EEEE
00000000000bab9c T _Z6formatPKcz
00000000000c211c W _ZN10llama_file4implC2EPKcS2_
00000000000c1198 T _ZN10llama_fileC1EPKcS1_
00000000000c1198 T _ZN10llama_fileC2EPKcS1_
00000000000c11f4 T _ZN10llama_fileD1Ev
00000000000c11f4 T _ZN10llama_fileD2Ev
00000000000c18c0 T _ZN10llama_mmap14unmap_fragmentEmm
00000000000c18c8 W _ZN10llama_mmap4impl14unmap_fragmentEmm
00000000000c225c W _ZN10llama_mmap4implC2EP10llama_filemb
00000000000c2598 W _ZN10llama_mmap4implD2Ev
000000000004f3c6 R _ZN10llama_mmap9SUPPORTEDE
00000000000c1800 T _ZN10llama_mmapC1EP10llama_filemb
00000000000c1800 T _ZN10llama_mmapC2EP10llama_filemb
00000000000c186c T _ZN10llama_mmapD1Ev
00000000000c186c T _ZN10llama_mmapD2Ev
000000000012fb64 W _ZN10naive_trie6insertEPKcmi
00000000000941ec W _ZN11llama_crossD2Ev
00000000000c1fb0 W _ZN11llama_mlock4impl7grow_toEm
00000000000c1f64 T _ZN11llama_mlock4initEPv
00000000000c1fa8 T _ZN11llama_mlock7grow_toEm
000000000004f3c7 R _ZN11llama_mlock9SUPPORTEDE
00000000000c1f1c T _ZN11llama_mlockC1Ev
00000000000c1f1c T _ZN11llama_mlockC2Ev
00000000000c1f4c T _ZN11llama_mlockD1Ev
00000000000c1f4c T _ZN11llama_mlockD2Ev
00000000000cde54 T _ZN11llama_model10load_statsER18llama_model_loader
00000000000d044c T _ZN11llama_model10load_vocabER18llama_model_loader
00000000000ce014 T _ZN11llama_model12load_hparamsER18llama_model_loader
00000000000d04c4 T _ZN11llama_model12load_tensorsER18llama_model_loader
00000000000eb144 W _ZN11llama_model4implD2Ev
00000000000cde64 T _ZN11llama_model9load_archER18llama_model_loader
00000000000cda38 T _ZN11llama_modelC1ERK18llama_model_params
00000000000cda38 T _ZN11llama_modelC2ERK18llama_model_params
00000000000cdd24 T _ZN11llama_modelD1Ev
00000000000cdd24 T _ZN11llama_modelD2Ev
0000000000120d64 T _ZN11llama_vocab4impl14init_tokenizerE16llama_vocab_type
000000000011d17c T _ZN11llama_vocab4impl4loadER18llama_model_loaderRK6LLM_KV
0000000000130084 W _ZN11llama_vocab4implD2Ev
000000000012895c T _ZN11llama_vocab4loadER18llama_model_loaderRK6LLM_KV
0000000000128874 T _ZN11llama_vocabC1Ev
0000000000128874 T _ZN11llama_vocabC2Ev
0000000000128920 T _ZN11llama_vocabD1Ev
0000000000128920 T _ZN11llama_vocabD2Ev
00000000000881dc T _ZN12llama_sbatch10from_batchERK11llama_batchmbb
0000000000088000 T _ZN12llama_sbatch11split_equalEm
0000000000087f48 T _ZN12llama_sbatch12split_simpleEm
000000000008719c T _ZN12llama_sbatch14reserve_ubatchEmb
0000000000087564 T _ZN12llama_sbatch17add_seq_to_ubatchER12llama_ubatchR16llama_sbatch_seqm
000000000008812c T _ZN12llama_sbatch9split_seqEm
0000000000094268 W _ZN12llama_sbatchD2Ev
0000000000095690 T _ZN13llama_context10get_logitsEv
0000000000093f5c T _ZN13llama_context10graph_initEv
000000000009a12c T _ZN13llama_context10perf_resetEv
0000000000096570 T _ZN13llama_context10set_warmupEb
0000000000094720 T _ZN13llama_context11get_kv_selfEv
0000000000094010 T _ZN13llama_context11graph_buildEP12ggml_contextP11ggml_cgraphRK12llama_ubatch14llm_graph_type
00000000000945e4 T _ZN13llama_context11synchronizeEv
00000000000955a4 T _ZN13llama_context13graph_computeEP11ggml_cgraphb
00000000000963f4 T _ZN13llama_context13set_n_threadsEii
0000000000095f24 T _ZN13llama_context14get_embeddingsEv
0000000000095b90 T _ZN13llama_context14get_logits_ithEi
000000000009502c T _ZN13llama_context14kv_self_updateEv
00000000000956b4 T _ZN13llama_context14output_reorderEv
0000000000093d1c T _ZN13llama_context14output_reserveEi
00000000000964f0 T _ZN13llama_context14set_embeddingsEb
0000000000098e78 T _ZN13llama_context14state_get_dataEPhm
00000000000989d8 T _ZN13llama_context14state_get_sizeEv
0000000000098f50 T _ZN13llama_context14state_set_dataEPKhm
000000000009664c T _ZN13llama_context15rm_adapter_loraEP18llama_adapter_lora
0000000000096530 T _ZN13llama_context15set_causal_attnEb
000000000009992c T _ZN13llama_context15state_load_fileEPKcPimPm
0000000000099024 T _ZN13llama_context15state_read_dataER15llama_io_read_i
0000000000099b48 T _ZN13llama_context15state_save_fileEPKcPKim
00000000000965b0 T _ZN13llama_context16set_adapter_loraEP18llama_adapter_loraf
0000000000098aa8 T _ZN13llama_context16state_write_dataER16llama_io_write_i
0000000000096360 T _ZN13llama_context17attach_threadpoolEP15ggml_threadpoolS1_
00000000000963b4 T _ZN13llama_context17detach_threadpoolEv
0000000000096770 T _ZN13llama_context18apply_adapter_cvecEPKfmiii
00000000000966f4 T _ZN13llama_context18clear_adapter_loraEv
0000000000095f48 T _ZN13llama_context18get_embeddings_ithEi
0000000000096310 T _ZN13llama_context18get_embeddings_seqEi
0000000000096444 T _ZN13llama_context18set_abort_callbackEPFbPvES0_
000000000009971c T _ZN13llama_context18state_seq_get_dataEiPhm
0000000000099604 T _ZN13llama_context18state_seq_get_sizeEi
000000000009980c T _ZN13llama_context18state_seq_set_dataEiPKhm
0000000000099c94 T _ZN13llama_context19state_seq_load_fileEiPKcPimPm
00000000000998fc T _ZN13llama_context19state_seq_read_dataER15llama_io_read_ii
0000000000099f34 T _ZN13llama_context19state_seq_save_fileEiPKcPKim
00000000000996ec T _ZN13llama_context20state_seq_write_dataER16llama_io_write_ii
0000000000097354 T _ZN13llama_context6decodeER11llama_batch
00000000000967ec T _ZN13llama_context6encodeER11llama_batch
00000000000920a8 T _ZN13llama_contextC1ERK11llama_model20llama_context_params
00000000000920a8 T _ZN13llama_contextC2ERK11llama_model20llama_context_params
0000000000094448 T _ZN13llama_contextD1Ev
0000000000094448 T _ZN13llama_contextD2Ev
00000000000a4f50 W _ZN13llama_grammarD2Ev
00000000000f0fb0 W _ZN13llm_build_mptC2ERK11llama_modelRK16llm_graph_paramsP11ggml_cgraph
000000000012f8a4 W _ZN13llm_tokenizerD2Ev
00000000000f02e0 W _ZN14llm_build_bertC2ERK11llama_modelRK16llm_graph_paramsP11ggml_cgraph
00000000000f993c W _ZN14llm_build_dbrxC2ERK11llama_modelRK16llm_graph_paramsP11ggml_cgraph
00000000000edffc W _ZN14llm_build_deciC2ERK11llama_modelRK16llm_graph_paramsP11ggml_cgraph
00000000000f46a8 W _ZN14llm_build_gpt2C2ERK11llama_modelRK16llm_graph_paramsP11ggml_cgraph
00000000000ef2b8 W _ZN14llm_build_grokC2ERK11llama_modelRK16llm_graph_paramsP11ggml_cgraph
00000000000fee38 W _ZN14llm_build_jaisC2ERK11llama_modelRK16llm_graph_paramsP11ggml_cgraph
00000000000f9f14 W _ZN14llm_build_olmoC2ERK11llama_modelRK16llm_graph_paramsP11ggml_cgraph
00000000000f3448 W _ZN14llm_build_phi2C2ERK11llama_modelRK16llm_graph_paramsP11ggml_cgraph
00000000000f3a9c W _ZN14llm_build_phi3C2ERK11llama_modelRK16llm_graph_paramsP11ggml_cgraph
00000000000f1c64 W _ZN14llm_build_qwenC2ERK11llama_modelRK16llm_graph_paramsP11ggml_cgraph
00000000000bb8e0 T _ZN15llama_io_read_i11read_stringERNSt6__ndk112basic_stringIcNS0_11char_traitsIcEENS0_9allocatorIcEEEE
0000000000099600 W _ZN15llama_io_read_iD2Ev
00000000000f0a8c W _ZN15llm_build_bloomC2ERK11llama_modelRK16llm_graph_paramsP11ggml_cgraph
00000000000f6748 W _ZN15llm_build_gemmaC2ERK11llama_modelRK16llm_graph_paramsP11ggml_cgraph
00000000000ed880 W _ZN15llm_build_llamaC2ERK11llama_modelRK16llm_graph_paramsP11ggml_cgraph
00000000000f7e38 W _ZN15llm_build_mambaC2ERK11llama_modelRK16llm_graph_paramsP11ggml_cgraph
00000000000fa4dc W _ZN15llm_build_olmo2C2ERK11llama_modelRK16llm_graph_paramsP11ggml_cgraph
00000000000faa74 W _ZN15llm_build_olmoeC2ERK11llama_modelRK16llm_graph_paramsP11ggml_cgraph
00000000000f51cc W _ZN15llm_build_orionC2ERK11llama_modelRK16llm_graph_paramsP11ggml_cgraph
00000000000f41f4 W _ZN15llm_build_plamoC2ERK11llama_modelRK16llm_graph_paramsP11ggml_cgraph
00000000000f21e4 W _ZN15llm_build_qwen2C2ERK11llama_modelRK16llm_graph_paramsP11ggml_cgraph
00000000000ffef4 W _ZN15llm_build_rwkv6C2ERK11llama_modelRK16llm_graph_paramsP11ggml_cgraph
00000000000bb840 T _ZN16llama_io_write_i12write_stringERKNSt6__ndk112basic_stringIcNS0_11char_traitsIcEENS0_9allocatorIcEEEE
0000000000098f4c W _ZN16llama_io_write_iD2Ev
00000000000fbce8 W _ZN16llm_build_arcticC2ERK11llama_modelRK16llm_graph_paramsP11ggml_cgraph
00000000000fdb9c W _ZN16llm_build_bitnetC2ERK11llama_modelRK16llm_graph_paramsP11ggml_cgraph
00000000000ff890 W _ZN16llm_build_exaoneC2ERK11llama_modelRK16llm_graph_paramsP11ggml_cgraph
00000000000eed10 W _ZN16llm_build_falconC2ERK11llama_modelRK16llm_graph_paramsP11ggml_cgraph
00000000000f6c5c W _ZN16llm_build_gemma2C2ERK11llama_modelRK16llm_graph_paramsP11ggml_cgraph
00000000000f7278 W _ZN16llm_build_gemma3C2ERK11llama_modelRK16llm_graph_paramsP11ggml_cgraph
00000000000efe70 W _ZN16llm_build_refactC2ERK11llama_modelRK16llm_graph_paramsP11ggml_cgraph
00000000000fe760 W _ZN16llm_build_t5_decC2ERK11llama_modelRK16llm_graph_paramsP11ggml_cgraph
00000000000fe2ac W _ZN16llm_build_t5_encC2ERK11llama_modelRK16llm_graph_paramsP11ggml_cgraph
00000000000f86c4 W _ZN16llm_build_xverseC2ERK11llama_modelRK16llm_graph_paramsP11ggml_cgraph
000000000009bff0 W _ZN16llm_graph_result10get_logitsEv
000000000009c008 W _ZN16llm_graph_result10set_inputsEPK12llama_ubatch
000000000009c000 W _ZN16llm_graph_result15get_embd_pooledEv
000000000009bff8 W _ZN16llm_graph_result8get_embdEv
000000000009bf6c W _ZN16llm_graph_resultD0Ev
000000000009bed0 W _ZN16llm_graph_resultD2Ev
000000000011c4f0 W _ZN17llama_sampler_dryD2Ev
00000000000fd550 W _ZN17llm_build_chatglmC2ERK11llama_modelRK16llm_graph_paramsP11ggml_cgraph
00000000000f92a8 W _ZN17llm_build_cohere2C2ERK11llama_modelRK16llm_graph_paramsP11ggml_cgraph
00000000000fb61c W _ZN17llm_build_gptneoxC2ERK11llama_modelRK16llm_graph_paramsP11ggml_cgraph
00000000000faff0 W _ZN17llm_build_openelmC2ERK11llama_modelRK16llm_graph_paramsP11ggml_cgraph
00000000000f2778 W _ZN17llm_build_qwen2vlC2ERK11llama_modelRK16llm_graph_paramsP11ggml_cgraph
00000000000b6c94 T _ZN17llm_graph_contextC1ERK16llm_graph_params
00000000000b6c94 T _ZN17llm_graph_contextC2ERK16llm_graph_params
000000000009c054 W _ZN17llm_graph_input_iD2Ev
000000000012e83c W _ZN17llm_tokenizer_bpeC2ERK11llama_vocab
000000000012f4bc W _ZN17llm_tokenizer_bpeD0Ev
000000000012f430 W _ZN17llm_tokenizer_bpeD2Ev
000000000012e838 W _ZN17llm_tokenizer_spmD0Ev
000000000012f8ac W _ZN17llm_tokenizer_ugmC2ERK11llama_vocabRKNSt6__ndk16vectorIcNS3_9allocatorIcEEEE
000000000012fde4 W _ZN17llm_tokenizer_ugmD0Ev
000000000012fd8c W _ZN17llm_tokenizer_ugmD2Ev
000000000012f8a8 W _ZN17llm_tokenizer_wpmD0Ev
000000000007e1bc T _ZN18llama_adapter_cvec4initERK11llama_model
000000000007eaa8 T _ZN18llama_adapter_cvec5applyERK11llama_modelPKfmiii
0000000000094368 W _ZN18llama_adapter_cvecD2Ev
000000000007ebc8 T _ZN18llama_adapter_lora10get_weightEP11ggml_tensor
0000000000080510 W _ZN18llama_adapter_loraD2Ev
0000000000088564 T _ZN18llama_batch_allocrC1E11llama_batchi
0000000000088564 T _ZN18llama_batch_allocrC2E11llama_batchi
00000000000972f0 W _ZN18llama_batch_allocrD2Ev
000000000009b7d4 W _ZN18llama_io_read_file4readEm
000000000009b9dc W _ZN18llama_io_read_file7n_bytesEv
000000000009b9a8 W _ZN18llama_io_read_file7read_toEPvm
000000000009b790 W _ZN18llama_io_read_fileD0Ev
0000000000099b20 W _ZN18llama_io_read_fileD2Ev
00000000000c6e58 T _ZN18llama_model_loader13create_tensorEP12ggml_contextRKNSt6__ndk112basic_stringIcNS2_11char_traitsIcEENS2_9allocatorIcEEEERKSt16initializer_listIlEi
00000000000c73c4 T _ZN18llama_model_loader13init_mappingsEbPNSt6__ndk16vectorINS0_10unique_ptrI11llama_mlockNS0_14default_deleteIS3_EEEENS0_9allocatorIS6_EEEE
00000000000c7db8 T _ZN18llama_model_loader13load_all_dataEP12ggml_contextRNSt6__ndk113unordered_mapIjP19ggml_backend_bufferNS2_4hashIjEENS2_8equal_toIjEENS2_9allocatorINS2_4pairIKjS5_EEEEEEPNS2_6vectorINS2_10unique_ptrI11llama_mlockNS2_14default_deleteISJ_EEEENSA_ISM_EEEEPFbfPvESQ_
00000000000c32c8 W _ZN18llama_model_loader14get_key_or_arrINSt6__ndk15arrayIiLm4EEEEEb6llm_kvRT_jb
00000000000c36f8 W _ZN18llama_model_loader14get_key_or_arrINSt6__ndk15arrayIjLm512EEEEEb6llm_kvRT_jb
00000000000c3390 W _ZN18llama_model_loader14get_key_or_arrIiLm4EEEbRKNSt6__ndk112basic_stringIcNS1_11char_traitsIcEENS1_9allocatorIcEEEERNS1_5arrayIT_XT0_EEEjb
00000000000c37c0 W _ZN18llama_model_loader14get_key_or_arrIjLm512EEEbRKNSt6__ndk112basic_stringIcNS1_11char_traitsIcEENS1_9allocatorIcEEEERNS1_5arrayIT_XT0_EEEjb
00000000000c5fc4 W _ZN18llama_model_loader19llama_tensor_weightC2EPK10llama_filetPK12gguf_contextP11ggml_tensor
00000000000c6ff4 T _ZN18llama_model_loader21create_tensor_as_viewEP12ggml_contextP11ggml_tensorRKNSt6__ndk112basic_stringIcNS4_11char_traitsIcEENS4_9allocatorIcEEEERKSt16initializer_listIlEmb
00000000000cb1e8 W _ZN18llama_model_loader7get_arrIiLm4EEEbRKNSt6__ndk112basic_stringIcNS1_11char_traitsIcEENS1_9allocatorIcEEEERNS1_5arrayIT_XT0_EEEb
00000000000cb4d0 W _ZN18llama_model_loader7get_arrIjLm512EEEbRKNSt6__ndk112basic_stringIcNS1_11char_traitsIcEENS1_9allocatorIcEEEERNS1_5arrayIT_XT0_EEEb
00000000000c3200 T _ZN18llama_model_loader7get_keyI18llama_pooling_typeEEb6llm_kvRT_b
00000000000c2f70 W _ZN18llama_model_loader7get_keyINSt6__ndk112basic_stringIcNS1_11char_traitsIcEENS1_9allocatorIcEEEEEEb6llm_kvRT_b
00000000000c3028 W _ZN18llama_model_loader7get_keyINSt6__ndk112basic_stringIcNS1_11char_traitsIcEENS1_9allocatorIcEEEEEEbRKS7_RT_b
00000000000c2878 W _ZN18llama_model_loader7get_keyIbEEb6llm_kvRT_b
00000000000c2930 W _ZN18llama_model_loader7get_keyIbEEbRKNSt6__ndk112basic_stringIcNS1_11char_traitsIcEENS1_9allocatorIcEEEERT_b
00000000000c2acc W _ZN18llama_model_loader7get_keyIfEEb6llm_kvRT_b
00000000000c2b84 W _ZN18llama_model_loader7get_keyIfEEbRKNSt6__ndk112basic_stringIcNS1_11char_traitsIcEENS1_9allocatorIcEEEERT_b
00000000000c6364 W _ZN18llama_model_loader7get_keyIiEEbRKNSt6__ndk112basic_stringIcNS1_11char_traitsIcEENS1_9allocatorIcEEEERT_b
00000000000c2d20 W _ZN18llama_model_loader7get_keyIjEEb6llm_kvRT_b
00000000000c2dd8 W _ZN18llama_model_loader7get_keyIjEEbRKNSt6__ndk112basic_stringIcNS1_11char_traitsIcEENS1_9allocatorIcEEEERT_b
00000000000c61cc W _ZN18llama_model_loader7get_keyItEEbRKNSt6__ndk112basic_stringIcNS1_11char_traitsIcEENS1_9allocatorIcEEEERT_b
00000000000c2664 W _ZN18llama_model_loader9get_arr_nIjEENSt6__ndk19enable_ifIXsr3std11is_integralIT_EE5valueEbE4typeE6llm_kvRS3_b
00000000000c271c W _ZN18llama_model_loader9get_arr_nIjEENSt6__ndk19enable_ifIXsr3std11is_integralIT_EE5valueEbE4typeERKNS1_12basic_stringIcNS1_11char_traitsIcEENS1_9allocatorIcEEEERS3_b
00000000000c3b08 T _ZN18llama_model_loaderC1ERKNSt6__ndk112basic_stringIcNS0_11char_traitsIcEENS0_9allocatorIcEEEERNS0_6vectorIS6_NS4_IS6_EEEEbbPK23llama_model_kv_override
00000000000c3b08 T _ZN18llama_model_loaderC2ERKNSt6__ndk112basic_stringIcNS0_11char_traitsIcEENS0_9allocatorIcEEEERNS0_6vectorIS6_NS4_IS6_EEEEbbPK23llama_model_kv_override
000000000007dbcc W _ZN18llama_model_loaderD2Ev
00000000000ee790 W _ZN18llm_build_baichuanC2ERK11llama_modelRK16llm_graph_paramsP11ggml_cgraph
00000000000fc2d4 W _ZN18llm_build_deepseekC2ERK11llama_modelRK16llm_graph_paramsP11ggml_cgraph
00000000000f5c60 W _ZN18llm_build_minicpm3C2ERK11llama_modelRK16llm_graph_paramsP11ggml_cgraph
00000000000ff30c W _ZN18llm_build_nemotronC2ERK11llama_modelRK16llm_graph_paramsP11ggml_cgraph
00000000000f2d78 W _ZN18llm_build_qwen2moeC2ERK11llama_modelRK16llm_graph_paramsP11ggml_cgraph
00000000000f1608 W _ZN18llm_build_stablelmC2ERK11llama_modelRK16llm_graph_paramsP11ggml_cgraph
000000000012fe88 W _ZN18llm_tokenizer_rwkvC2ERK11llama_vocab
0000000000130038 W _ZN18llm_tokenizer_rwkvD0Ev
0000000000130018 W _ZN18llm_tokenizer_rwkvD2Ev
000000000009ba5c W _ZN19llama_io_write_file12write_tensorEPK11ggml_tensormm
000000000009ba28 W _ZN19llama_io_write_file5writeEPKvm
000000000009a0e0 W _ZN19llama_io_write_file7n_bytesEv
000000000009b9e4 W _ZN19llama_io_write_fileD0Ev
0000000000099c6c W _ZN19llama_io_write_fileD2Ev
000000000010139c W _ZN19llm_build_chameleonC2ERK11llama_modelRK16llm_graph_paramsP11ggml_cgraph
00000000000f4c00 W _ZN19llm_build_codeshellC2ERK11llama_modelRK16llm_graph_paramsP11ggml_cgraph
00000000000f8bbc W _ZN19llm_build_command_rC2ERK11llama_modelRK16llm_graph_paramsP11ggml_cgraph
00000000000fca30 W _ZN19llm_build_deepseek2C2ERK11llama_modelRK16llm_graph_paramsP11ggml_cgraph
00000000000f56c0 W _ZN19llm_build_internlm2C2ERK11llama_modelRK16llm_graph_paramsP11ggml_cgraph
00000000000ef914 W _ZN19llm_build_starcoderC2ERK11llama_modelRK16llm_graph_paramsP11ggml_cgraph
00000000000b56a8 T _ZN19llm_graph_input_cls9set_inputEPK12llama_ubatch
00000000000ba4a8 W _ZN19llm_graph_input_clsD0Ev
00000000000b4a58 T _ZN19llm_graph_input_pos9set_inputEPK12llama_ubatch
00000000000ba494 W _ZN19llm_graph_input_posD0Ev
00000000000a0038 T _ZN20llama_grammar_parser10parse_ruleEPKc
000000000009cc28 T _ZN20llama_grammar_parser13get_symbol_idEPKcm
000000000009d614 T _ZN20llama_grammar_parser14parse_sequenceEPKcRKNSt6__ndk112basic_stringIcNS2_11char_traitsIcEENS2_9allocatorIcEEEERNS2_6vectorI21llama_grammar_elementNS6_ISC_EEEEb
000000000009d0ec T _ZN20llama_grammar_parser16parse_alternatesEPKcRKNSt6__ndk112basic_stringIcNS2_11char_traitsIcEENS2_9allocatorIcEEEEjb
000000000009cd54 T _ZN20llama_grammar_parser18generate_symbol_idERKNSt6__ndk112basic_stringIcNS0_11char_traitsIcEENS0_9allocatorIcEEEE
00000000000a04d0 T _ZN20llama_grammar_parser5parseEPKc
00000000000a08cc T _ZN20llama_grammar_parser5printEP7__sFILE
000000000009d004 T _ZN20llama_grammar_parser8add_ruleEjRKNSt6__ndk16vectorI21llama_grammar_elementNS0_9allocatorIS2_EEEE
00000000000a4eac W _ZN20llama_grammar_parserD2Ev
000000000009b6c8 W _ZN20llama_io_read_buffer4readEm
000000000009b788 W _ZN20llama_io_read_buffer7n_bytesEv
000000000009b74c W _ZN20llama_io_read_buffer7read_toEPvm
000000000009b6c4 W _ZN20llama_io_read_bufferD0Ev
000000000009b570 W _ZN20llama_io_write_dummy12write_tensorEPK11ggml_tensormm
000000000009b560 W _ZN20llama_io_write_dummy5writeEPKvm
000000000009b580 W _ZN20llama_io_write_dummy7n_bytesEv
000000000009b55c W _ZN20llama_io_write_dummyD0Ev
0000000000100f7c W _ZN20llm_build_rwkv6qwen2C2ERK11llama_modelRK16llm_graph_paramsP11ggml_cgraph
00000000000f7898 W _ZN20llm_build_starcoder2C2ERK11llama_modelRK16llm_graph_paramsP11ggml_cgraph
00000000000b49b8 T _ZN20llm_graph_input_embd9set_inputEPK12llama_ubatch
00000000000ba4c4 W _ZN20llm_graph_input_embdD0Ev
00000000000b5420 T _ZN20llm_graph_input_mean9set_inputEPK12llama_ubatch
00000000000ba4a4 W _ZN20llm_graph_input_meanD0Ev
000000000009b620 W _ZN21llama_io_write_buffer12write_tensorEPK11ggml_tensormm
000000000009b58c W _ZN21llama_io_write_buffer5writeEPKvm
000000000009b6bc W _ZN21llama_io_write_buffer7n_bytesEv
000000000009b588 W _ZN21llama_io_write_bufferD0Ev
00000000000bf330 T _ZN22llama_kv_cache_unified10state_readER15llama_io_read_ii
00000000000bd2a4 T _ZN22llama_kv_cache_unified11seq_pos_maxEi
00000000000be3a4 T _ZN22llama_kv_cache_unified14defrag_prepareEi
00000000000bfa80 T _ZN22llama_kv_cache_unified15state_read_dataER15llama_io_read_ij
00000000000bf460 T _ZN22llama_kv_cache_unified15state_read_metaER15llama_io_read_iji
00000000000bba28 T _ZN22llama_kv_cache_unified4initERK11llama_modelRK13llama_cparams9ggml_typeS6_jb
00000000000bc62c T _ZN22llama_kv_cache_unified5clearEv
00000000000bd32c T _ZN22llama_kv_cache_unified6defragEv
00000000000bca10 T _ZN22llama_kv_cache_unified6seq_cpEiiii
00000000000bc6e4 T _ZN22llama_kv_cache_unified6seq_rmEiii
00000000000bcf38 T _ZN22llama_kv_cache_unified7seq_addEiiii
00000000000bd144 T _ZN22llama_kv_cache_unified7seq_divEiiii
00000000000bcd4c T _ZN22llama_kv_cache_unified8seq_keepEi
00000000000bd34c T _ZN22llama_kv_cache_unified9find_slotERK12llama_ubatch
00000000000bb968 T _ZN22llama_kv_cache_unifiedC1ERK13llama_hparamsNS_9callbacksE
00000000000bb968 T _ZN22llama_kv_cache_unifiedC2ERK13llama_hparamsNS_9callbacksE
00000000000c05e8 W _ZN22llama_kv_cache_unifiedD0Ev
00000000000c0478 W _ZN22llama_kv_cache_unifiedD2Ev
000000000009b3ac W _ZN22llama_kv_slot_restorer4saveERK24llama_kv_cache_slot_info
00000000000b5bc8 T _ZN22llm_graph_input_s_copy9set_inputEPK12llama_ubatch
00000000000ba4ac W _ZN22llm_graph_input_s_copyD0Ev
00000000000b5c9c T _ZN22llm_graph_input_s_mask9set_inputEPK12llama_ubatch
00000000000ba4b0 W _ZN22llm_graph_input_s_maskD0Ev
0000000000094898 T _ZN23llm_graph_input_k_shift9set_inputEPK12llama_ubatch
000000000009b198 W _ZN23llm_graph_input_k_shiftD0Ev
00000000000b5288 T _ZN23llm_graph_input_out_ids9set_inputEPK12llama_ubatch
00000000000ba4a0 W _ZN23llm_graph_input_out_idsD0Ev
000000000012abbc W _ZN25llm_tokenizer_bpe_session14add_new_bigramEii
00000000001253d4 W _ZN25llm_tokenizer_bpe_session6appendEiRNSt6__ndk16vectorIiNS0_9allocatorIiEEEE
0000000000124138 W _ZN25llm_tokenizer_bpe_session8tokenizeERKNSt6__ndk112basic_stringIcNS0_11char_traitsIcEENS0_9allocatorIcEEEERNS0_6vectorIiNS4_IiEEEE
0000000000125724 W _ZN25llm_tokenizer_bpe_sessionD2Ev
0000000000129abc W _ZN25llm_tokenizer_spm_session14try_add_bigramEii
0000000000123b54 W _ZN25llm_tokenizer_spm_session8tokenizeERKNSt6__ndk112basic_stringIcNS0_11char_traitsIcEENS0_9allocatorIcEEEERNS0_6vectorIiNS4_IiEEEE
0000000000129d38 W _ZN25llm_tokenizer_spm_session9resegmentER10llm_symbolRNSt6__ndk16vectorIiNS2_9allocatorIiEEEE
0000000000123f24 W _ZN25llm_tokenizer_spm_sessionD2Ev
000000000012c110 W _ZN25llm_tokenizer_ugm_session16normalize_prefixERKNSt6__ndk112basic_stringIcNS0_11char_traitsIcEENS0_9allocatorIcEEEEm
000000000012601c W _ZN25llm_tokenizer_ugm_session8tokenizeERKNSt6__ndk112basic_stringIcNS0_11char_traitsIcEENS0_9allocatorIcEEEERNS0_6vectorIiNS4_IiEEEE
000000000012bd24 W _ZN25llm_tokenizer_ugm_session9normalizeERKNSt6__ndk112basic_stringIcNS0_11char_traitsIcEENS0_9allocatorIcEEEEPS6_
000000000012b7fc W _ZN25llm_tokenizer_wpm_session10preprocessERKNSt6__ndk112basic_stringIcNS0_11char_traitsIcEENS0_9allocatorIcEEEE
00000000001257bc W _ZN25llm_tokenizer_wpm_session8tokenizeERKNSt6__ndk112basic_stringIcNS0_11char_traitsIcEENS0_9allocatorIcEEEERNS0_6vectorIiNS4_IiEEEE
0000000000101b8c W _ZN26llm_build_wavtokenizer_decC2ERK11llama_modelRK16llm_graph_paramsP11ggml_cgraph
00000000000b69f4 T _ZN26llm_graph_input_attn_cross9set_inputEPK12llama_ubatch
00000000000ba4c0 W _ZN26llm_graph_input_attn_crossD0Ev
00000000000b5d48 T _ZN26llm_graph_input_cross_embd9set_inputEPK12llama_ubatch
00000000000ba4b4 W _ZN26llm_graph_input_cross_embdD0Ev
00000000000b4abc T _ZN26llm_graph_input_pos_bucket9set_inputEPK12llama_ubatch
00000000000ba498 W _ZN26llm_graph_input_pos_bucketD0Ev
0000000000126694 W _ZN26llm_tokenizer_rwkv_session8tokenizeERKNSt6__ndk112basic_stringIcNS0_11char_traitsIcEENS0_9allocatorIcEEEERNS0_6vectorIiNS4_IiEEEE
00000000000b5d9c T _ZN29llm_graph_input_attn_no_cache9set_inputEPK12llama_ubatch
00000000000ba4b8 W _ZN29llm_graph_input_attn_no_cacheD0Ev
00000000000b4ea4 T _ZN29llm_graph_input_pos_bucket_kv9set_inputEPK12llama_ubatch
00000000000ba49c W _ZN29llm_graph_input_pos_bucket_kvD0Ev
00000000000b6234 T _ZN31llm_graph_input_attn_kv_unified9set_inputEPK12llama_ubatch
00000000000ba4bc W _ZN31llm_graph_input_attn_kv_unifiedD0Ev
0000000000085fd8 T _ZN6LLM_KVC1E8llm_archPKc
0000000000085fd8 T _ZN6LLM_KVC2E8llm_archPKc
00000000000c9e2c W _ZN8GGUFMeta3GKVINS_9ArrayInfoEE6get_kvEPK12gguf_contexti
00000000000caf58 W _ZN8GGUFMeta3GKVINSt6__ndk112basic_stringIcNS1_11char_traitsIcEENS1_9allocatorIcEEEEE17validate_overrideE28llama_model_kv_override_typePK23llama_model_kv_override
00000000000cad8c W _ZN8GGUFMeta3GKVINSt6__ndk112basic_stringIcNS1_11char_traitsIcEENS1_9allocatorIcEEEEE6get_kvEPK12gguf_contexti
00000000000ca34c W _ZN8GGUFMeta3GKVIbE17validate_overrideE28llama_model_kv_override_typePK23llama_model_kv_override
00000000000ca204 W _ZN8GGUFMeta3GKVIbE6get_kvEPK12gguf_contexti
00000000000ca724 W _ZN8GGUFMeta3GKVIfE17validate_overrideE28llama_model_kv_override_typePK23llama_model_kv_override
00000000000ca5dc W _ZN8GGUFMeta3GKVIfE6get_kvEPK12gguf_contexti
00000000000cc878 W _ZN8GGUFMeta3GKVIiE17validate_overrideE28llama_model_kv_override_typePK23llama_model_kv_override
00000000000cc730 W _ZN8GGUFMeta3GKVIiE6get_kvEPK12gguf_contexti
00000000000caafc W _ZN8GGUFMeta3GKVIjE17validate_overrideE28llama_model_kv_override_typePK23llama_model_kv_override
00000000000ca9b4 W _ZN8GGUFMeta3GKVIjE6get_kvEPK12gguf_contexti
00000000000cc4a0 W _ZN8GGUFMeta3GKVItE17validate_overrideE28llama_model_kv_override_typePK23llama_model_kv_override
00000000000cc358 W _ZN8GGUFMeta3GKVItE6get_kvEPK12gguf_contexti
00000000000ba708 T _ZN9time_measC1ERlb
00000000000ba708 T _ZN9time_measC2ERlb
00000000000ba748 T _ZN9time_measD1Ev
00000000000ba748 T _ZN9time_measD2Ev
00000000000c1370 W _ZNK10llama_file4impl4seekEmi
00000000000c123c W _ZNK10llama_file4impl4tellEv
00000000000c1488 W _ZNK10llama_file4impl8read_rawEPvm
00000000000c1674 W _ZNK10llama_file4impl9write_rawEPKvm
00000000000c1368 T _ZNK10llama_file4seekEmi
00000000000c1350 T _ZNK10llama_file4sizeEv
00000000000c1234 T _ZNK10llama_file4tellEv
00000000000c135c T _ZNK10llama_file7file_idEv
00000000000c1480 T _ZNK10llama_file8read_rawEPvm
00000000000c1618 T _ZNK10llama_file8read_u32Ev
00000000000c166c T _ZNK10llama_file9write_rawEPKvm
00000000000c17ac T _ZNK10llama_file9write_u32Ej
00000000000c18b4 T _ZNK10llama_mmap4addrEv
00000000000c18a8 T _ZNK10llama_mmap4sizeEv
00000000000860fc T _ZNK11LLM_TN_IMPL3strEv
00000000000e67a0 T _ZNK11llama_model10dev_outputEv
00000000000e6ad4 T _ZNK11llama_model10get_tensorEPKc
00000000000e5654 T _ZNK11llama_model10n_elementsEv
00000000000e5660 T _ZNK11llama_model10print_infoEv
00000000000e6d24 T _ZNK11llama_model11build_graphERK16llm_graph_paramsP11ggml_cgraph14llm_graph_type
00000000000e67ac T _ZNK11llama_model11select_buftEi
00000000000e6bb0 T _ZNK11llama_model13create_memoryEv
00000000000e5604 T _ZNK11llama_model4descEv
00000000000e5634 T _ZNK11llama_model4sizeEv
00000000000d02ac T _ZNK11llama_model9arch_nameEv
00000000000e6770 T _ZNK11llama_model9dev_layerEi
00000000000e4248 T _ZNK11llama_model9n_devicesEv
00000000000e5640 T _ZNK11llama_model9n_tensorsEv
00000000000d034c T _ZNK11llama_model9type_nameEv
0000000000129434 T _ZNK11llama_vocab10detokenizeEPKiiPcibb
000000000012943c T _ZNK11llama_vocab10detokenizeERKNSt6__ndk16vectorIiNS0_9allocatorIiEEEEb
0000000000128b60 T _ZNK11llama_vocab10is_controlEi
0000000000128b14 T _ZNK11llama_vocab10is_unknownEi
000000000012958c T _ZNK11llama_vocab10print_infoEv
0000000000128f38 T _ZNK11llama_vocab11get_add_bosEv
0000000000128f44 T _ZNK11llama_vocab11get_add_eosEv
0000000000128970 T _ZNK11llama_vocab12get_pre_typeEv
0000000000128ecc T _ZNK11llama_vocab12token_middleEv
0000000000128ec0 T _ZNK11llama_vocab12token_prefixEv
0000000000128ed8 T _ZNK11llama_vocab12token_suffixEv
0000000000120ef8 T _ZNK11llama_vocab13byte_to_tokenEh
0000000000128f98 T _ZNK11llama_vocab13find_bpe_rankERKNSt6__ndk112basic_stringIcNS0_11char_traitsIcEENS0_9allocatorIcEEEES8_
0000000000128f8c T _ZNK11llama_vocab13max_token_lenEv
000000000012897c T _ZNK11llama_vocab13n_token_typesEv
0000000000128ce8 T _ZNK11llama_vocab13text_to_tokenERKNSt6__ndk112basic_stringIcNS0_11char_traitsIcEENS0_9allocatorIcEEEE
0000000000128efc T _ZNK11llama_vocab13token_fim_midEv
0000000000128f08 T _ZNK11llama_vocab13token_fim_padEv
0000000000128ee4 T _ZNK11llama_vocab13token_fim_preEv
0000000000128f14 T _ZNK11llama_vocab13token_fim_repEv
0000000000128f20 T _ZNK11llama_vocab13token_fim_sepEv
0000000000128ef0 T _ZNK11llama_vocab13token_fim_sufEv
0000000000128ce0 T _ZNK11llama_vocab13token_to_byteEi
0000000000123ad8 T _ZNK11llama_vocab14get_token_dataEi
0000000000128e04 T _ZNK11llama_vocab14token_get_attrEi
0000000000128d40 T _ZNK11llama_vocab14token_get_textEi
00000000001293f4 T _ZNK11llama_vocab14token_to_pieceEi
0000000000123b30 T _ZNK11llama_vocab14token_to_pieceEiPciib
0000000000128bf8 T _ZNK11llama_vocab15is_user_definedEi
0000000000128da8 T _ZNK11llama_vocab15token_get_scoreEi
0000000000128f5c T _ZNK11llama_vocab16get_clean_spacesEv
0000000000128f50 T _ZNK11llama_vocab17get_ignore_mergesEv
0000000000128f2c T _ZNK11llama_vocab20get_add_space_prefixEv
0000000000128f74 T _ZNK11llama_vocab22get_escape_whitespacesEv
0000000000128f68 T _ZNK11llama_vocab28get_remove_extra_whitespacesEv
0000000000128f80 T _ZNK11llama_vocab30get_treat_whitespace_as_suffixEv
0000000000127e3c T _ZNK11llama_vocab4impl10detokenizeEPKiiPcibb
0000000000123198 T _ZNK11llama_vocab4impl10is_controlEi
0000000000123150 T _ZNK11llama_vocab4impl10is_unknownEi
0000000000128240 T _ZNK11llama_vocab4impl10print_infoEv
0000000000123304 T _ZNK11llama_vocab4impl13token_to_byteEi
0000000000123518 T _ZNK11llama_vocab4impl14token_get_attrEi
0000000000127e00 T _ZNK11llama_vocab4impl14token_to_pieceEi
0000000000126af8 T _ZNK11llama_vocab4impl14token_to_pieceEiPciib
0000000000123228 T _ZNK11llama_vocab4impl15is_user_definedEi
0000000000123570 T _ZNK11llama_vocab4impl22tokenizer_st_partitionERNSt6__ndk112forward_listI23fragment_buffer_variantNS1_9allocatorIS3_EEEEb
0000000000122d38 T _ZNK11llama_vocab4impl24token_to_piece_for_cacheEib
00000000001232b8 T _ZNK11llama_vocab4impl6is_eogEi
00000000001231e0 T _ZNK11llama_vocab4impl7is_byteEi
0000000000122fc4 T _ZNK11llama_vocab4impl8get_typeEv
00000000001211e4 T _ZNK11llama_vocab4impl8tokenizeERKNSt6__ndk112basic_stringIcNS1_11char_traitsIcEENS1_9allocatorIcEEEEbb
0000000000123108 T _ZNK11llama_vocab4impl9is_normalEi
0000000000123270 T _ZNK11llama_vocab4impl9is_unusedEi
0000000000122fcc T _ZNK11llama_vocab4impl9type_nameEv
0000000000128c90 T _ZNK11llama_vocab6is_eogEi
0000000000128bac T _ZNK11llama_vocab7is_byteEi
0000000000128964 T _ZNK11llama_vocab8get_typeEv
0000000000128860 T _ZNK11llama_vocab8n_tokensEv
0000000000128ea8 T _ZNK11llama_vocab8token_nlEv
0000000000129204 T _ZNK11llama_vocab8tokenizeEPKciPiibb
00000000001293ec T _ZNK11llama_vocab8tokenizeERKNSt6__ndk112basic_stringIcNS0_11char_traitsIcEENS0_9allocatorIcEEEEbb
0000000000128ac8 T _ZNK11llama_vocab9is_normalEi
0000000000128c44 T _ZNK11llama_vocab9is_unusedEi
0000000000128e60 T _ZNK11llama_vocab9token_bosEv
0000000000128e84 T _ZNK11llama_vocab9token_eomEv
0000000000128e6c T _ZNK11llama_vocab9token_eosEv
0000000000128e78 T _ZNK11llama_vocab9token_eotEv
0000000000128eb4 T _ZNK11llama_vocab9token_padEv
0000000000128e9c T _ZNK11llama_vocab9token_sepEv
0000000000128e90 T _ZNK11llama_vocab9token_unkEv
0000000000128988 T _ZNK11llama_vocab9type_nameEv
0000000000094728 T _ZNK13llama_context11get_kv_selfEv
00000000000989c4 T _ZNK13llama_context12graph_get_cbEv
0000000000095688 T _ZNK13llama_context12pooling_typeEv
00000000000946e8 T _ZNK13llama_context13n_ctx_per_seqEv
000000000009a0e8 T _ZNK13llama_context13perf_get_dataEv
0000000000093f34 T _ZNK13llama_context15graph_max_nodesEv
0000000000094718 T _ZNK13llama_context15n_threads_batchEv
0000000000094730 T _ZNK13llama_context16build_rope_shiftEP12ggml_contextP11ggml_tensorS3_S3_ffP19ggml_backend_buffer
00000000000948d8 T _ZNK13llama_context19build_kv_self_shiftEP12ggml_contextP11ggml_cgraph
0000000000094c48 T _ZNK13llama_context20build_kv_self_defragEP12ggml_contextP11ggml_cgraph
00000000000946e0 T _ZNK13llama_context5n_ctxEv
00000000000946f8 T _ZNK13llama_context7n_batchEv
0000000000094700 T _ZNK13llama_context8n_ubatchEv
00000000000946d8 T _ZNK13llama_context9get_modelEv
0000000000094708 T _ZNK13llama_context9n_seq_maxEv
0000000000094710 T _ZNK13llama_context9n_threadsEv
00000000000ba644 T _ZNK13llama_hparams10n_embd_k_sEv
00000000000ba680 T _ZNK13llama_hparams10n_embd_v_sEv
00000000000ba5c4 T _ZNK13llama_hparams12n_embd_k_gqaEj
00000000000ba604 T _ZNK13llama_hparams12n_embd_v_gqaEj
00000000000ba538 T _ZNK13llama_hparams4n_ffEj
00000000000ba570 T _ZNK13llama_hparams5n_gqaEj
00000000000ba6ac T _ZNK13llama_hparams6is_swaEj
00000000000ba4c8 T _ZNK13llama_hparams6n_headEj
00000000000ba500 T _ZNK13llama_hparams9n_head_kvEj
00000000000c046c W _ZNK14llama_kv_cache12get_can_editEv
00000000000f8070 W _ZNK15llm_build_mamba17build_mamba_layerEP11ggml_cgraphP11ggml_tensorS3_S3_RK12llama_ubatchi
00000000000b9d70 T _ZNK17llm_graph_context10build_attnEP26llm_graph_input_attn_crossP11ggml_cgraphP11ggml_tensorS5_S5_S5_S5_S5_fi
00000000000b92d4 T _ZNK17llm_graph_context10build_attnEP29llm_graph_input_attn_no_cacheP11ggml_cgraphP11ggml_tensorS5_S5_S5_S5_S5_fi
00000000000b96d8 T _ZNK17llm_graph_context10build_attnEP31llm_graph_input_attn_kv_unifiedP11ggml_cgraphP11ggml_tensorS5_S5_S5_S5_S5_fi
00000000000b6e9c T _ZNK17llm_graph_context10build_cvecEP11ggml_tensori
00000000000b70b4 T _ZNK17llm_graph_context10build_normEP11ggml_tensorS1_S1_13llm_norm_typei
00000000000b865c T _ZNK17llm_graph_context13build_inp_clsEv
00000000000b82e0 T _ZNK17llm_graph_context13build_inp_posEv
00000000000b6eb8 T _ZNK17llm_graph_context13build_lora_mmEP11ggml_tensorS1_
00000000000b7954 T _ZNK17llm_graph_context13build_moe_ffnEP11ggml_tensorS1_S1_S1_S1_S1_ll15llm_ffn_op_typebbf29llama_expert_gating_func_typei
00000000000ba1c0 T _ZNK17llm_graph_context13build_poolingEP11ggml_cgraphP11ggml_tensorS3_S3_S3_
00000000000b8e88 T _ZNK17llm_graph_context14build_attn_mhaEP11ggml_cgraphP11ggml_tensorS3_S3_S3_S3_bf
00000000000b8034 T _ZNK17llm_graph_context14build_inp_embdEP11ggml_tensor
00000000000b853c T _ZNK17llm_graph_context14build_inp_meanEv
00000000000b8d38 T _ZNK17llm_graph_context14build_pos_biasEP11ggml_tensorS1_
00000000000b6e14 T _ZNK17llm_graph_context15n_pos_per_tokenEv
00000000000b8778 T _ZNK17llm_graph_context16build_inp_s_copyEv
00000000000b8894 T _ZNK17llm_graph_context16build_inp_s_maskEv
00000000000b6fac T _ZNK17llm_graph_context16build_lora_mm_idEP11ggml_tensorS1_S1_
00000000000b841c T _ZNK17llm_graph_context17build_inp_out_idsEv
00000000000b9be0 T _ZNK17llm_graph_context20build_attn_inp_crossEv
00000000000b89b4 T _ZNK17llm_graph_context20build_inp_cross_embdEv
00000000000b9f2c T _ZNK17llm_graph_context21build_copy_mask_stateEP11ggml_cgraphP11ggml_tensorS3_S3_ii
00000000000b9164 T _ZNK17llm_graph_context23build_attn_inp_no_cacheEv
00000000000b8c08 T _ZNK17llm_graph_context24build_inp_pos_bucket_decEv
00000000000b8ae8 T _ZNK17llm_graph_context24build_inp_pos_bucket_encEv
00000000000b9490 T _ZNK17llm_graph_context25build_attn_inp_kv_unifiedEv
00000000000ba060 T _ZNK17llm_graph_context27build_rwkv_token_shift_loadEP11ggml_cgraphP11ggml_tensorS3_RK12llama_ubatchi
00000000000ba0f4 T _ZNK17llm_graph_context28build_rwkv_token_shift_storeEP11ggml_tensorRK12llama_ubatchi
00000000000b6e28 T _ZNK17llm_graph_context2cbEP11ggml_tensorPKci
00000000000b7258 T _ZNK17llm_graph_context9build_ffnEP11ggml_tensorS1_S1_S1_S1_S1_S1_S1_S1_S1_S1_15llm_ffn_op_type17llm_ffn_gate_typei
000000000007e124 T _ZNK18llama_adapter_cvec10tensor_forEi
000000000007e16c T _ZNK18llama_adapter_cvec8apply_toEP12ggml_contextP11ggml_tensori
00000000000c9668 T _ZNK18llama_model_loader10ftype_nameEv
00000000000c6748 T _ZNK18llama_model_loader10get_weightEPKc
00000000000c9c78 T _ZNK18llama_model_loader10print_infoEv
00000000000c6714 T _ZNK18llama_model_loader13get_arch_nameEv
00000000000c7b40 T _ZNK18llama_model_loader13load_data_forEP11ggml_tensor
00000000000c68e0 T _ZNK18llama_model_loader14require_weightEPKc
00000000000c69ec T _ZNK18llama_model_loader15get_tensor_metaEPKc
00000000000c6b3c T _ZNK18llama_model_loader17check_tensor_dimsERKNSt6__ndk112basic_stringIcNS0_11char_traitsIcEENS0_9allocatorIcEEEERKNS0_6vectorIlNS4_IlEEEEb
00000000000c7a10 T _ZNK18llama_model_loader17get_mapping_rangeEPmS0_PPviP12ggml_context
00000000000c6a08 T _ZNK18llama_model_loader19require_tensor_metaERKNSt6__ndk112basic_stringIcNS0_11char_traitsIcEENS0_9allocatorIcEEEE
00000000000c72b4 T _ZNK18llama_model_loader20done_getting_tensorsEv
00000000000cc078 W _ZNK18llama_model_loader20weight_name_comparerclERKNSt6__ndk112basic_stringIcNS1_11char_traitsIcEENS1_9allocatorIcEEEES9_
00000000000c6740 T _ZNK18llama_model_loader8get_archEv
00000000000a11ec T _ZNK20llama_grammar_parser7c_rulesEv
000000000010040c W _ZNK20llm_build_rwkv6_base20build_rwkv6_time_mixEP11ggml_cgraphP11ggml_tensorS3_S3_S3_RK12llama_ubatchi
0000000000100e58 W _ZNK20llm_build_rwkv6_base23build_rwkv6_channel_mixEPK11llama_layerP11ggml_tensorS4_8llm_arch
00000000000bc524 T _ZNK22llama_kv_cache_unified10total_sizeEv
00000000000be280 T _ZNK22llama_kv_cache_unified11get_paddingERK13llama_cparams
00000000000be7d0 T _ZNK22llama_kv_cache_unified11state_writeER16llama_io_write_ii
00000000000bc498 T _ZNK22llama_kv_cache_unified12get_n_tokensEv
00000000000be2e4 T _ZNK22llama_kv_cache_unified12size_k_bytesEv
00000000000be344 T _ZNK22llama_kv_cache_unified12size_v_bytesEv
00000000000bd344 T _ZNK22llama_kv_cache_unified13get_can_shiftEv
00000000000bc51c T _ZNK22llama_kv_cache_unified14get_used_cellsEv
00000000000bef60 T _ZNK22llama_kv_cache_unified16state_write_dataER16llama_io_write_iRKNSt6__ndk16vectorINS2_4pairIjjEENS2_9allocatorIS5_EEEE
00000000000beddc T _ZNK22llama_kv_cache_unified16state_write_metaER16llama_io_write_iRKNSt6__ndk16vectorINS2_4pairIjjEENS2_9allocatorIS5_EEEEi
00000000000bc584 T _ZNK22llama_kv_cache_unified7pos_maxEv
00000000000be298 T _ZNK22llama_kv_cache_unified8cell_maxEv
0000000000123f74 W _ZNK25llm_tokenizer_bpe_session10append_bosERNSt6__ndk16vectorIiNS0_9allocatorIiEEEE
0000000000125560 W _ZNK25llm_tokenizer_bpe_session10append_eosERNSt6__ndk16vectorIiNS0_9allocatorIiEEEE
0000000000085fe4 T _ZNK6LLM_KVclE6llm_kv
00000000000a9f6c W _ZNKSt6__ndk111basic_regexIcNS_12regex_traitsIcEEE21__match_at_start_ecmaINS_9allocatorINS_9sub_matchIPKcEEEEEEbS8_S8_RNS_13match_resultsIS8_T_EENS_15regex_constants15match_flag_typeEb
00000000000b2c4c W _ZNKSt6__ndk111basic_regexIcNS_12regex_traitsIcEEE27__match_at_start_posix_subsINS_9allocatorINS_9sub_matchIPKcEEEEEEbS8_S8_RNS_13match_resultsIS8_T_EENS_15regex_constants15match_flag_typeEb
00000000000b22dc W _ZNKSt6__ndk111basic_regexIcNS_12regex_traitsIcEEE29__match_at_start_posix_nosubsINS_9allocatorINS_9sub_matchIPKcEEEEEEbS8_S8_RNS_13match_resultsIS8_T_EENS_15regex_constants15match_flag_typeEb
00000000000b1ea0 W _ZNKSt6__ndk111basic_regexIcNS_12regex_traitsIcEEE8__searchINS_9allocatorINS_9sub_matchIPKcEEEEEEbS8_S8_RNS_13match_resultsIS8_T_EENS_15regex_constants15match_flag_typeE
000000000013c1d4 W _ZNKSt6__ndk111basic_regexIwNS_12regex_traitsIwEEE21__match_at_start_ecmaINS_9allocatorINS_9sub_matchIPKwEEEEEEbS8_S8_RNS_13match_resultsIS8_T_EENS_15regex_constants15match_flag_typeEb
0000000000144ab0 W _ZNKSt6__ndk111basic_regexIwNS_12regex_traitsIwEEE27__match_at_start_posix_subsINS_9allocatorINS_9sub_matchIPKwEEEEEEbS8_S8_RNS_13match_resultsIS8_T_EENS_15regex_constants15match_flag_typeEb
0000000000144128 W _ZNKSt6__ndk111basic_regexIwNS_12regex_traitsIwEEE29__match_at_start_posix_nosubsINS_9allocatorINS_9sub_matchIPKwEEEEEEbS8_S8_RNS_13match_resultsIS8_T_EENS_15regex_constants15match_flag_typeEb
0000000000143ebc W _ZNKSt6__ndk111basic_regexIwNS_12regex_traitsIwEEE8__searchINS_9allocatorINS_9sub_matchIPKwEEEEEEbS8_S8_RNS_13match_resultsIS8_T_EENS_15regex_constants15match_flag_typeE
0000000000108908 W _ZNKSt6__ndk112__hash_tableINS_17__hash_value_typeINS_12basic_stringIcNS_11char_traitsIcEENS_9allocatorIcEEEENS_6vectorIfNS5_IfEEEEEENS_22__unordered_map_hasherIS7_SB_NS_4hashIS7_EENS_8equal_toIS7_EELb1EEENS_21__unordered_map_equalIS7_SB_SG_SE_Lb1EEENS5_ISB_EEE4findIS7_EENS_21__hash_const_iteratorIPNS_11__hash_nodeISB_PvEEEERKT_
00000000001021b0 W _ZNKSt6__ndk112__hash_tableINS_17__hash_value_typeINS_12basic_stringIcNS_11char_traitsIcEENS_9allocatorIcEEEES7_EENS_22__unordered_map_hasherIS7_S8_NS_4hashIS7_EENS_8equal_toIS7_EELb1EEENS_21__unordered_map_equalIS7_S8_SD_SB_Lb1EEENS5_IS8_EEE4findIS7_EENS_21__hash_const_iteratorIPNS_11__hash_nodeIS8_PvEEEERKT_
00000000000af9b0 W _ZNKSt6__ndk112regex_traitsIcE18__lookup_classnameINS_11__wrap_iterIPKcEEEEtT_S7_bc
0000000000117df0 W _ZNKSt6__ndk112regex_traitsIcE18__lookup_classnameIPKcEEtT_S5_bc
00000000000af4bc W _ZNKSt6__ndk112regex_traitsIcE19__transform_primaryINS_11__wrap_iterIPcEEEENS_12basic_stringIcNS_11char_traitsIcEENS_9allocatorIcEEEET_SC_c
00000000000ad8a4 W _ZNKSt6__ndk112regex_traitsIcE19__transform_primaryIPcEENS_12basic_stringIcNS_11char_traitsIcEENS_9allocatorIcEEEET_SA_c
00000000000af200 W _ZNKSt6__ndk112regex_traitsIcE20__lookup_collatenameINS_11__wrap_iterIPKcEEEENS_12basic_stringIcNS_11char_traitsIcEENS_9allocatorIcEEEET_SD_c
0000000000117b88 W _ZNKSt6__ndk112regex_traitsIcE20__lookup_collatenameIPKcEENS_12basic_stringIcNS_11char_traitsIcEENS_9allocatorIcEEEET_SB_c
00000000000ad63c W _ZNKSt6__ndk112regex_traitsIcE20__lookup_collatenameIPcEENS_12basic_stringIcNS_11char_traitsIcEENS_9allocatorIcEEEET_SA_c
00000000000b0038 W _ZNKSt6__ndk112regex_traitsIcE9transformINS_11__wrap_iterIPcEEEENS_12basic_stringIcNS_11char_traitsIcEENS_9allocatorIcEEEET_SC_
00000000000ad4dc W _ZNKSt6__ndk112regex_traitsIcE9transformIPcEENS_12basic_stringIcNS_11char_traitsIcEENS_9allocatorIcEEEET_SA_
0000000000142180 W _ZNKSt6__ndk112regex_traitsIwE18__lookup_classnameINS_11__wrap_iterIPKwEEEEtT_S7_bw
0000000000141c9c W _ZNKSt6__ndk112regex_traitsIwE19__transform_primaryINS_11__wrap_iterIPwEEEENS_12basic_stringIwNS_11char_traitsIwEENS_9allocatorIwEEEET_SC_w
000000000013fa8c W _ZNKSt6__ndk112regex_traitsIwE19__transform_primaryIPwEENS_12basic_stringIwNS_11char_traitsIwEENS_9allocatorIwEEEET_SA_w
000000000014178c W _ZNKSt6__ndk112regex_traitsIwE20__lookup_collatenameINS_11__wrap_iterIPKwEEEENS_12basic_stringIwNS_11char_traitsIwEENS_9allocatorIwEEEET_SD_w
000000000013f5d4 W _ZNKSt6__ndk112regex_traitsIwE20__lookup_collatenameIPwEENS_12basic_stringIwNS_11char_traitsIwEENS_9allocatorIwEEEET_SA_w
000000000014284c W _ZNKSt6__ndk112regex_traitsIwE9transformINS_11__wrap_iterIPwEEEENS_12basic_stringIwNS_11char_traitsIwEENS_9allocatorIwEEEET_SC_
000000000013f458 W _ZNKSt6__ndk112regex_traitsIwE9transformIPwEENS_12basic_stringIwNS_11char_traitsIwEENS_9allocatorIwEEEET_SA_
0000000000118c24 W _ZNKSt6__ndk113match_resultsIPKcNS_9allocatorINS_9sub_matchIS2_EEEEE6formatINS_20back_insert_iteratorINS_12basic_stringIcNS_11char_traitsIcEENS3_IcEEEEEEEET_SG_S2_S2_NS_15regex_constants15match_flag_typeE
00000000001473fc W _ZNKSt6__ndk16__treeINS_12__value_typeINS_12basic_stringIcNS_11char_traitsIcEENS_9allocatorIcEEEEiEENS_19__map_value_compareIS7_S8_NS_4lessIS7_EELb1EEENS5_IS8_EEE4findIS7_EENS_21__tree_const_iteratorIS8_PNS_11__tree_nodeIS8_PvEElEERKT_
00000000000ac054 W _ZNSt6__ndk110__back_refIcED0Ev
000000000013e154 W _ZNSt6__ndk110__back_refIwED0Ev
00000000000e7f70 W _ZNSt6__ndk110unique_ptrI17llm_graph_contextNS_14default_deleteIS1_EEEaSB8ne180000I13llm_build_mptNS2_IS6_EEvvEERS4_ONS0_IT_T0_EE
00000000000e94c4 W _ZNSt6__ndk110unique_ptrI17llm_graph_contextNS_14default_deleteIS1_EEEaSB8ne180000I14llm_build_dbrxNS2_IS6_EEvvEERS4_ONS0_IT_T0_EE
00000000000e7854 W _ZNSt6__ndk110unique_ptrI17llm_graph_contextNS_14default_deleteIS1_EEEaSB8ne180000I14llm_build_deciNS2_IS6_EEvvEERS4_ONS0_IT_T0_EE
00000000000e8790 W _ZNSt6__ndk110unique_ptrI17llm_graph_contextNS_14default_deleteIS1_EEEaSB8ne180000I14llm_build_gpt2NS2_IS6_EEvvEERS4_ONS0_IT_T0_EE
00000000000e7b60 W _ZNSt6__ndk110unique_ptrI17llm_graph_contextNS_14default_deleteIS1_EEEaSB8ne180000I14llm_build_grokNS2_IS6_EEvvEERS4_ONS0_IT_T0_EE
00000000000ea1f8 W _ZNSt6__ndk110unique_ptrI17llm_graph_contextNS_14default_deleteIS1_EEEaSB8ne180000I14llm_build_jaisNS2_IS6_EEvvEERS4_ONS0_IT_T0_EE
00000000000e95c8 W _ZNSt6__ndk110unique_ptrI17llm_graph_contextNS_14default_deleteIS1_EEEaSB8ne180000I14llm_build_olmoNS2_IS6_EEvvEERS4_ONS0_IT_T0_EE
00000000000e8588 W _ZNSt6__ndk110unique_ptrI17llm_graph_contextNS_14default_deleteIS1_EEEaSB8ne180000I14llm_build_phi2NS2_IS6_EEvvEERS4_ONS0_IT_T0_EE
00000000000e8178 W _ZNSt6__ndk110unique_ptrI17llm_graph_contextNS_14default_deleteIS1_EEEaSB8ne180000I14llm_build_qwenNS2_IS6_EEvvEERS4_ONS0_IT_T0_EE
00000000000e7e6c W _ZNSt6__ndk110unique_ptrI17llm_graph_contextNS_14default_deleteIS1_EEEaSB8ne180000I15llm_build_bloomNS2_IS6_EEvvEERS4_ONS0_IT_T0_EE
00000000000e8ca4 W _ZNSt6__ndk110unique_ptrI17llm_graph_contextNS_14default_deleteIS1_EEEaSB8ne180000I15llm_build_gemmaNS2_IS6_EEvvEERS4_ONS0_IT_T0_EE
00000000000e90b4 W _ZNSt6__ndk110unique_ptrI17llm_graph_contextNS_14default_deleteIS1_EEEaSB8ne180000I15llm_build_mambaNS2_IS6_EEvvEERS4_ONS0_IT_T0_EE
00000000000e96cc W _ZNSt6__ndk110unique_ptrI17llm_graph_contextNS_14default_deleteIS1_EEEaSB8ne180000I15llm_build_olmo2NS2_IS6_EEvvEERS4_ONS0_IT_T0_EE
00000000000e97d0 W _ZNSt6__ndk110unique_ptrI17llm_graph_contextNS_14default_deleteIS1_EEEaSB8ne180000I15llm_build_olmoeNS2_IS6_EEvvEERS4_ONS0_IT_T0_EE
00000000000e8998 W _ZNSt6__ndk110unique_ptrI17llm_graph_contextNS_14default_deleteIS1_EEEaSB8ne180000I15llm_build_orionNS2_IS6_EEvvEERS4_ONS0_IT_T0_EE
00000000000e868c W _ZNSt6__ndk110unique_ptrI17llm_graph_contextNS_14default_deleteIS1_EEEaSB8ne180000I15llm_build_plamoNS2_IS6_EEvvEERS4_ONS0_IT_T0_EE
00000000000e827c W _ZNSt6__ndk110unique_ptrI17llm_graph_contextNS_14default_deleteIS1_EEEaSB8ne180000I15llm_build_qwen2NS2_IS6_EEvvEERS4_ONS0_IT_T0_EE
00000000000ea504 W _ZNSt6__ndk110unique_ptrI17llm_graph_contextNS_14default_deleteIS1_EEEaSB8ne180000I15llm_build_rwkv6NS2_IS6_EEvvEERS4_ONS0_IT_T0_EE
00000000000e9adc W _ZNSt6__ndk110unique_ptrI17llm_graph_contextNS_14default_deleteIS1_EEEaSB8ne180000I16llm_build_arcticNS2_IS6_EEvvEERS4_ONS0_IT_T0_EE
00000000000e9eec W _ZNSt6__ndk110unique_ptrI17llm_graph_contextNS_14default_deleteIS1_EEEaSB8ne180000I16llm_build_bitnetNS2_IS6_EEvvEERS4_ONS0_IT_T0_EE
00000000000ea400 W _ZNSt6__ndk110unique_ptrI17llm_graph_contextNS_14default_deleteIS1_EEEaSB8ne180000I16llm_build_exaoneNS2_IS6_EEvvEERS4_ONS0_IT_T0_EE
00000000000e7a5c W _ZNSt6__ndk110unique_ptrI17llm_graph_contextNS_14default_deleteIS1_EEEaSB8ne180000I16llm_build_falconNS2_IS6_EEvvEERS4_ONS0_IT_T0_EE
00000000000e8da8 W _ZNSt6__ndk110unique_ptrI17llm_graph_contextNS_14default_deleteIS1_EEEaSB8ne180000I16llm_build_gemma2NS2_IS6_EEvvEERS4_ONS0_IT_T0_EE
00000000000e8eac W _ZNSt6__ndk110unique_ptrI17llm_graph_contextNS_14default_deleteIS1_EEEaSB8ne180000I16llm_build_gemma3NS2_IS6_EEvvEERS4_ONS0_IT_T0_EE
00000000000e7d68 W _ZNSt6__ndk110unique_ptrI17llm_graph_contextNS_14default_deleteIS1_EEEaSB8ne180000I16llm_build_refactNS2_IS6_EEvvEERS4_ONS0_IT_T0_EE
00000000000ea0f4 W _ZNSt6__ndk110unique_ptrI17llm_graph_contextNS_14default_deleteIS1_EEEaSB8ne180000I16llm_build_t5_decNS2_IS6_EEvvEERS4_ONS0_IT_T0_EE
00000000000e9ff0 W _ZNSt6__ndk110unique_ptrI17llm_graph_contextNS_14default_deleteIS1_EEEaSB8ne180000I16llm_build_t5_encNS2_IS6_EEvvEERS4_ONS0_IT_T0_EE
00000000000e91b8 W _ZNSt6__ndk110unique_ptrI17llm_graph_contextNS_14default_deleteIS1_EEEaSB8ne180000I16llm_build_xverseNS2_IS6_EEvvEERS4_ONS0_IT_T0_EE
00000000000e9de8 W _ZNSt6__ndk110unique_ptrI17llm_graph_contextNS_14default_deleteIS1_EEEaSB8ne180000I17llm_build_chatglmNS2_IS6_EEvvEERS4_ONS0_IT_T0_EE
00000000000e93c0 W _ZNSt6__ndk110unique_ptrI17llm_graph_contextNS_14default_deleteIS1_EEEaSB8ne180000I17llm_build_cohere2NS2_IS6_EEvvEERS4_ONS0_IT_T0_EE
00000000000e99d8 W _ZNSt6__ndk110unique_ptrI17llm_graph_contextNS_14default_deleteIS1_EEEaSB8ne180000I17llm_build_gptneoxNS2_IS6_EEvvEERS4_ONS0_IT_T0_EE
00000000000e98d4 W _ZNSt6__ndk110unique_ptrI17llm_graph_contextNS_14default_deleteIS1_EEEaSB8ne180000I17llm_build_openelmNS2_IS6_EEvvEERS4_ONS0_IT_T0_EE
00000000000e8380 W _ZNSt6__ndk110unique_ptrI17llm_graph_contextNS_14default_deleteIS1_EEEaSB8ne180000I17llm_build_qwen2vlNS2_IS6_EEvvEERS4_ONS0_IT_T0_EE
00000000000e7958 W _ZNSt6__ndk110unique_ptrI17llm_graph_contextNS_14default_deleteIS1_EEEaSB8ne180000I18llm_build_baichuanNS2_IS6_EEvvEERS4_ONS0_IT_T0_EE
00000000000e9be0 W _ZNSt6__ndk110unique_ptrI17llm_graph_contextNS_14default_deleteIS1_EEEaSB8ne180000I18llm_build_deepseekNS2_IS6_EEvvEERS4_ONS0_IT_T0_EE
00000000000e8ba0 W _ZNSt6__ndk110unique_ptrI17llm_graph_contextNS_14default_deleteIS1_EEEaSB8ne180000I18llm_build_minicpm3NS2_IS6_EEvvEERS4_ONS0_IT_T0_EE
00000000000ea2fc W _ZNSt6__ndk110unique_ptrI17llm_graph_contextNS_14default_deleteIS1_EEEaSB8ne180000I18llm_build_nemotronNS2_IS6_EEvvEERS4_ONS0_IT_T0_EE
00000000000e8484 W _ZNSt6__ndk110unique_ptrI17llm_graph_contextNS_14default_deleteIS1_EEEaSB8ne180000I18llm_build_qwen2moeNS2_IS6_EEvvEERS4_ONS0_IT_T0_EE
00000000000e8074 W _ZNSt6__ndk110unique_ptrI17llm_graph_contextNS_14default_deleteIS1_EEEaSB8ne180000I18llm_build_stablelmNS2_IS6_EEvvEERS4_ONS0_IT_T0_EE
00000000000ea70c W _ZNSt6__ndk110unique_ptrI17llm_graph_contextNS_14default_deleteIS1_EEEaSB8ne180000I19llm_build_chameleonNS2_IS6_EEvvEERS4_ONS0_IT_T0_EE
00000000000e8894 W _ZNSt6__ndk110unique_ptrI17llm_graph_contextNS_14default_deleteIS1_EEEaSB8ne180000I19llm_build_codeshellNS2_IS6_EEvvEERS4_ONS0_IT_T0_EE
00000000000e92bc W _ZNSt6__ndk110unique_ptrI17llm_graph_contextNS_14default_deleteIS1_EEEaSB8ne180000I19llm_build_command_rNS2_IS6_EEvvEERS4_ONS0_IT_T0_EE
00000000000e9ce4 W _ZNSt6__ndk110unique_ptrI17llm_graph_contextNS_14default_deleteIS1_EEEaSB8ne180000I19llm_build_deepseek2NS2_IS6_EEvvEERS4_ONS0_IT_T0_EE
00000000000e8a9c W _ZNSt6__ndk110unique_ptrI17llm_graph_contextNS_14default_deleteIS1_EEEaSB8ne180000I19llm_build_internlm2NS2_IS6_EEvvEERS4_ONS0_IT_T0_EE
00000000000e7c64 W _ZNSt6__ndk110unique_ptrI17llm_graph_contextNS_14default_deleteIS1_EEEaSB8ne180000I19llm_build_starcoderNS2_IS6_EEvvEERS4_ONS0_IT_T0_EE
00000000000ea608 W _ZNSt6__ndk110unique_ptrI17llm_graph_contextNS_14default_deleteIS1_EEEaSB8ne180000I20llm_build_rwkv6qwen2NS2_IS6_EEvvEERS4_ONS0_IT_T0_EE
00000000000e8fb0 W _ZNSt6__ndk110unique_ptrI17llm_graph_contextNS_14default_deleteIS1_EEEaSB8ne180000I20llm_build_starcoder2NS2_IS6_EEvvEERS4_ONS0_IT_T0_EE
00000000000ea810 W _ZNSt6__ndk110unique_ptrI17llm_graph_contextNS_14default_deleteIS1_EEEaSB8ne180000I26llm_build_wavtokenizer_decNS2_IS6_EEvvEERS4_ONS0_IT_T0_EE
00000000000b0ac4 W _ZNSt6__ndk111__alternateIcED0Ev
0000000000143214 W _ZNSt6__ndk111__alternateIwED0Ev
00000000000a8d80 W _ZNSt6__ndk111__end_stateIcED0Ev
000000000013af4c W _ZNSt6__ndk111__end_stateIwED0Ev
00000000000a9d24 W _ZNSt6__ndk111__lookaheadIcNS_12regex_traitsIcEEED0Ev
00000000000a9c94 W _ZNSt6__ndk111__lookaheadIcNS_12regex_traitsIcEEED2Ev
000000000013bf8c W _ZNSt6__ndk111__lookaheadIwNS_12regex_traitsIwEEED0Ev
000000000013befc W _ZNSt6__ndk111__lookaheadIwNS_12regex_traitsIwEEED2Ev
00000000000b11b0 W _ZNSt6__ndk111__match_anyIcED0Ev
0000000000143978 W _ZNSt6__ndk111__match_anyIwED0Ev
00000000000ab850 W _ZNSt6__ndk111basic_regexIcNS_12regex_traitsIcEEE11__push_charEc
00000000000b0510 W _ZNSt6__ndk111basic_regexIcNS_12regex_traitsIcEEE11__push_loopEmmPNS_16__owns_one_stateIcEEmmb
00000000000a91fc W _ZNSt6__ndk111basic_regexIcNS_12regex_traitsIcEEE12__parse_atomINS_11__wrap_iterIPKcEEEET_S9_S9_
0000000000115d4c W _ZNSt6__ndk111basic_regexIcNS_12regex_traitsIcEEE12__parse_atomIPKcEET_S7_S7_
00000000000a89bc W _ZNSt6__ndk111basic_regexIcNS_12regex_traitsIcEEE12__parse_grepINS_11__wrap_iterIPKcEEEET_S9_S9_
000000000011553c W _ZNSt6__ndk111basic_regexIcNS_12regex_traitsIcEEE12__parse_grepIPKcEET_S7_S7_
0000000000115954 W _ZNSt6__ndk111basic_regexIcNS_12regex_traitsIcEEE12__parse_termIPKcEET_S7_S7_
00000000000a8b78 W _ZNSt6__ndk111basic_regexIcNS_12regex_traitsIcEEE13__parse_egrepINS_11__wrap_iterIPKcEEEET_S9_S9_
00000000001156f8 W _ZNSt6__ndk111basic_regexIcNS_12regex_traitsIcEEE13__parse_egrepIPKcEET_S7_S7_
00000000000ab9dc W _ZNSt6__ndk111basic_regexIcNS_12regex_traitsIcEEE15__push_back_refEi
00000000000b1238 W _ZNSt6__ndk111basic_regexIcNS_12regex_traitsIcEEE15__test_back_refEc
00000000000a8448 W _ZNSt6__ndk111basic_regexIcNS_12regex_traitsIcEEE16__parse_ecma_expINS_11__wrap_iterIPKcEEEET_S9_S9_
0000000000115068 W _ZNSt6__ndk111basic_regexIcNS_12regex_traitsIcEEE16__parse_ecma_expIPKcEET_S7_S7_
00000000000a9888 W _ZNSt6__ndk111basic_regexIcNS_12regex_traitsIcEEE16__push_lookaheadERKS3_bj
00000000000a8e98 W _ZNSt6__ndk111basic_regexIcNS_12regex_traitsIcEEE17__parse_assertionINS_11__wrap_iterIPKcEEEET_S9_S9_
00000000001159e8 W _ZNSt6__ndk111basic_regexIcNS_12regex_traitsIcEEE17__parse_assertionIPKcEET_S7_S7_
00000000000ae5a8 W _ZNSt6__ndk111basic_regexIcNS_12regex_traitsIcEEE18__parse_awk_escapeINS_11__wrap_iterIPKcEEEET_S9_S9_PNS_12basic_stringIcNS_11char_traitsIcEENS_9allocatorIcEEEE
00000000001178a0 W _ZNSt6__ndk111basic_regexIcNS_12regex_traitsIcEEE18__parse_awk_escapeIPKcEET_S7_S7_PNS_12basic_stringIcNS_11char_traitsIcEENS_9allocatorIcEEEE
00000000000b0bc4 W _ZNSt6__ndk111basic_regexIcNS_12regex_traitsIcEEE18__parse_nondupl_REINS_11__wrap_iterIPKcEEEET_S9_S9_
0000000000117f70 W _ZNSt6__ndk111basic_regexIcNS_12regex_traitsIcEEE18__parse_nondupl_REIPKcEET_S7_S7_
00000000001158b4 W _ZNSt6__ndk111basic_regexIcNS_12regex_traitsIcEEE19__parse_alternativeIPKcEET_S7_S7_
00000000000aada0 W _ZNSt6__ndk111basic_regexIcNS_12regex_traitsIcEEE19__parse_atom_escapeINS_11__wrap_iterIPKcEEEET_S9_S9_
00000000001163a0 W _ZNSt6__ndk111basic_regexIcNS_12regex_traitsIcEEE19__parse_atom_escapeIPKcEET_S7_S7_
00000000000ae428 W _ZNSt6__ndk111basic_regexIcNS_12regex_traitsIcEEE20__parse_class_escapeINS_11__wrap_iterIPKcEEEET_S9_S9_RNS_12basic_stringIcNS_11char_traitsIcEENS_9allocatorIcEEEEPNS_20__bracket_expressionIcS2_EE
0000000000117724 W _ZNSt6__ndk111basic_regexIcNS_12regex_traitsIcEEE20__parse_class_escapeIPKcEET_S7_S7_RNS_12basic_stringIcNS_11char_traitsIcEENS_9allocatorIcEEEEPNS_20__bracket_expressionIcS2_EE
00000000000a86b4 W _ZNSt6__ndk111basic_regexIcNS_12regex_traitsIcEEE21__parse_basic_reg_expINS_11__wrap_iterIPKcEEEET_S9_S9_
000000000011521c W _ZNSt6__ndk111basic_regexIcNS_12regex_traitsIcEEE21__parse_basic_reg_expIPKcEET_S7_S7_
00000000000b1298 W _ZNSt6__ndk111basic_regexIcNS_12regex_traitsIcEEE22__parse_ERE_expressionINS_11__wrap_iterIPKcEEEET_S9_S9_
0000000000118550 W _ZNSt6__ndk111basic_regexIcNS_12regex_traitsIcEEE22__parse_ERE_expressionIPKcEET_S7_S7_
00000000000b0ddc W _ZNSt6__ndk111basic_regexIcNS_12regex_traitsIcEEE22__parse_RE_dupl_symbolINS_11__wrap_iterIPKcEEEET_S9_S9_PNS_16__owns_one_stateIcEEjj
00000000001181b4 W _ZNSt6__ndk111basic_regexIcNS_12regex_traitsIcEEE22__parse_RE_dupl_symbolIPKcEET_S7_S7_PNS_16__owns_one_stateIcEEjj
00000000000a9488 W _ZNSt6__ndk111basic_regexIcNS_12regex_traitsIcEEE23__parse_ERE_dupl_symbolINS_11__wrap_iterIPKcEEEET_S9_S9_PNS_16__owns_one_stateIcEEjj
0000000000115fac W _ZNSt6__ndk111basic_regexIcNS_12regex_traitsIcEEE23__parse_ERE_dupl_symbolIPKcEET_S7_S7_PNS_16__owns_one_stateIcEEjj
00000000000b15dc W _ZNSt6__ndk111basic_regexIcNS_12regex_traitsIcEEE23__parse_QUOTED_CHAR_EREINS_11__wrap_iterIPKcEEEET_S9_S9_
0000000000118894 W _ZNSt6__ndk111basic_regexIcNS_12regex_traitsIcEEE23__parse_QUOTED_CHAR_EREIPKcEET_S7_S7_
00000000000ae250 W _ZNSt6__ndk111basic_regexIcNS_12regex_traitsIcEEE23__parse_character_classINS_11__wrap_iterIPKcEEEET_S9_S9_PNS_20__bracket_expressionIcS2_EE
00000000000adac8 W _ZNSt6__ndk111basic_regexIcNS_12regex_traitsIcEEE23__parse_expression_termINS_11__wrap_iterIPKcEEEET_S9_S9_PNS_20__bracket_expressionIcS2_EE
0000000000116d64 W _ZNSt6__ndk111basic_regexIcNS_12regex_traitsIcEEE23__parse_expression_termIPKcEET_S7_S7_PNS_20__bracket_expressionIcS2_EE
00000000000ab42c W _ZNSt6__ndk111basic_regexIcNS_12regex_traitsIcEEE24__parse_character_escapeINS_11__wrap_iterIPKcEEEET_S9_S9_PNS_12basic_stringIcNS_11char_traitsIcEENS_9allocatorIcEEEE
000000000011694c W _ZNSt6__ndk111basic_regexIcNS_12regex_traitsIcEEE24__parse_character_escapeIPKcEET_S7_S7_PNS_12basic_stringIcNS_11char_traitsIcEENS_9allocatorIcEEEE
00000000000ae300 W _ZNSt6__ndk111basic_regexIcNS_12regex_traitsIcEEE24__parse_collating_symbolINS_11__wrap_iterIPKcEEEET_S9_S9_RNS_12basic_stringIcNS_11char_traitsIcEENS_9allocatorIcEEEE
00000000001175f8 W _ZNSt6__ndk111basic_regexIcNS_12regex_traitsIcEEE24__parse_collating_symbolIPKcEET_S7_S7_RNS_12basic_stringIcNS_11char_traitsIcEENS_9allocatorIcEEEE
00000000000a884c W _ZNSt6__ndk111basic_regexIcNS_12regex_traitsIcEEE24__parse_extended_reg_expINS_11__wrap_iterIPKcEEEET_S9_S9_
00000000001153cc W _ZNSt6__ndk111basic_regexIcNS_12regex_traitsIcEEE24__parse_extended_reg_expIPKcEET_S7_S7_
00000000000adf68 W _ZNSt6__ndk111basic_regexIcNS_12regex_traitsIcEEE25__parse_equivalence_classINS_11__wrap_iterIPKcEEEET_S9_S9_PNS_20__bracket_expressionIcS2_EE
0000000000117318 W _ZNSt6__ndk111basic_regexIcNS_12regex_traitsIcEEE25__parse_equivalence_classIPKcEET_S7_S7_PNS_20__bracket_expressionIcS2_EE
00000000000ab0cc W _ZNSt6__ndk111basic_regexIcNS_12regex_traitsIcEEE25__parse_pattern_characterINS_11__wrap_iterIPKcEEEET_S9_S9_
0000000000116680 W _ZNSt6__ndk111basic_regexIcNS_12regex_traitsIcEEE25__parse_pattern_characterIPKcEET_S7_S7_
00000000000aaf2c W _ZNSt6__ndk111basic_regexIcNS_12regex_traitsIcEEE26__parse_bracket_expressionINS_11__wrap_iterIPKcEEEET_S9_S9_
000000000011652c W _ZNSt6__ndk111basic_regexIcNS_12regex_traitsIcEEE26__parse_bracket_expressionIPKcEET_S7_S7_
00000000000ab1d8 W _ZNSt6__ndk111basic_regexIcNS_12regex_traitsIcEEE30__parse_character_class_escapeINS_11__wrap_iterIPKcEEEET_S9_S9_
00000000001166f8 W _ZNSt6__ndk111basic_regexIcNS_12regex_traitsIcEEE30__parse_character_class_escapeIPKcEET_S7_S7_
00000000000b1058 W _ZNSt6__ndk111basic_regexIcNS_12regex_traitsIcEEE32__parse_one_char_or_coll_elem_REINS_11__wrap_iterIPKcEEEET_S9_S9_
0000000000118428 W _ZNSt6__ndk111basic_regexIcNS_12regex_traitsIcEEE32__parse_one_char_or_coll_elem_REIPKcEET_S7_S7_
00000000000b1494 W _ZNSt6__ndk111basic_regexIcNS_12regex_traitsIcEEE33__parse_one_char_or_coll_elem_EREINS_11__wrap_iterIPKcEEEET_S9_S9_
000000000011874c W _ZNSt6__ndk111basic_regexIcNS_12regex_traitsIcEEE33__parse_one_char_or_coll_elem_EREIPKcEET_S7_S7_
00000000000a81fc W _ZNSt6__ndk111basic_regexIcNS_12regex_traitsIcEEE7__parseINS_11__wrap_iterIPKcEEEET_S9_S9_
0000000000114d00 W _ZNSt6__ndk111basic_regexIcNS_12regex_traitsIcEEE7__parseIPKcEET_S7_S7_
00000000000a4cb0 W _ZNSt6__ndk111basic_regexIcNS_12regex_traitsIcEEEC2B8ne180000INS_11char_traitsIcEENS_9allocatorIcEEEERKNS_12basic_stringIcT_T0_EENS_15regex_constants18syntax_option_typeE
00000000000a4d80 W _ZNSt6__ndk111basic_regexIcNS_12regex_traitsIcEEED2Ev
000000000013d99c W _ZNSt6__ndk111basic_regexIwNS_12regex_traitsIwEEE11__push_charEw
0000000000142cf8 W _ZNSt6__ndk111basic_regexIwNS_12regex_traitsIwEEE11__push_loopEmmPNS_16__owns_one_stateIwEEmmb
000000000013b3c8 W _ZNSt6__ndk111basic_regexIwNS_12regex_traitsIwEEE12__parse_atomINS_11__wrap_iterIPKwEEEET_S9_S9_
000000000013ab9c W _ZNSt6__ndk111basic_regexIwNS_12regex_traitsIwEEE12__parse_grepINS_11__wrap_iterIPKwEEEET_S9_S9_
000000000013ad74 W _ZNSt6__ndk111basic_regexIwNS_12regex_traitsIwEEE13__parse_egrepINS_11__wrap_iterIPKwEEEET_S9_S9_
000000000013dadc W _ZNSt6__ndk111basic_regexIwNS_12regex_traitsIwEEE15__push_back_refEi
0000000000143a00 W _ZNSt6__ndk111basic_regexIwNS_12regex_traitsIwEEE15__test_back_refEw
000000000013a628 W _ZNSt6__ndk111basic_regexIwNS_12regex_traitsIwEEE16__parse_ecma_expINS_11__wrap_iterIPKwEEEET_S9_S9_
000000000013bb24 W _ZNSt6__ndk111basic_regexIwNS_12regex_traitsIwEEE16__push_lookaheadERKS3_bj
000000000013b064 W _ZNSt6__ndk111basic_regexIwNS_12regex_traitsIwEEE17__parse_assertionINS_11__wrap_iterIPKwEEEET_S9_S9_
000000000014076c W _ZNSt6__ndk111basic_regexIwNS_12regex_traitsIwEEE18__parse_awk_escapeINS_11__wrap_iterIPKwEEEET_S9_S9_PNS_12basic_stringIwNS_11char_traitsIwEENS_9allocatorIwEEEE
00000000001432c8 W _ZNSt6__ndk111basic_regexIwNS_12regex_traitsIwEEE18__parse_nondupl_REINS_11__wrap_iterIPKwEEEET_S9_S9_
000000000013cf74 W _ZNSt6__ndk111basic_regexIwNS_12regex_traitsIwEEE19__parse_atom_escapeINS_11__wrap_iterIPKwEEEET_S9_S9_
00000000001405ec W _ZNSt6__ndk111basic_regexIwNS_12regex_traitsIwEEE20__parse_class_escapeINS_11__wrap_iterIPKwEEEET_S9_S9_RNS_12basic_stringIwNS_11char_traitsIwEENS_9allocatorIwEEEEPNS_20__bracket_expressionIwS2_EE
000000000013a894 W _ZNSt6__ndk111basic_regexIwNS_12regex_traitsIwEEE21__parse_basic_reg_expINS_11__wrap_iterIPKwEEEET_S9_S9_
0000000000143aa8 W _ZNSt6__ndk111basic_regexIwNS_12regex_traitsIwEEE22__parse_ERE_expressionINS_11__wrap_iterIPKwEEEET_S9_S9_
000000000014351c W _ZNSt6__ndk111basic_regexIwNS_12regex_traitsIwEEE22__parse_RE_dupl_symbolINS_11__wrap_iterIPKwEEEET_S9_S9_PNS_16__owns_one_stateIwEEjj
000000000013b654 W _ZNSt6__ndk111basic_regexIwNS_12regex_traitsIwEEE23__parse_ERE_dupl_symbolINS_11__wrap_iterIPKwEEEET_S9_S9_PNS_16__owns_one_stateIwEEjj
0000000000143dec W _ZNSt6__ndk111basic_regexIwNS_12regex_traitsIwEEE23__parse_QUOTED_CHAR_EREINS_11__wrap_iterIPKwEEEET_S9_S9_
0000000000140414 W _ZNSt6__ndk111basic_regexIwNS_12regex_traitsIwEEE23__parse_character_classINS_11__wrap_iterIPKwEEEET_S9_S9_PNS_20__bracket_expressionIwS2_EE
000000000013fc88 W _ZNSt6__ndk111basic_regexIwNS_12regex_traitsIwEEE23__parse_expression_termINS_11__wrap_iterIPKwEEEET_S9_S9_PNS_20__bracket_expressionIwS2_EE
000000000013d558 W _ZNSt6__ndk111basic_regexIwNS_12regex_traitsIwEEE24__parse_character_escapeINS_11__wrap_iterIPKwEEEET_S9_S9_PNS_12basic_stringIwNS_11char_traitsIwEENS_9allocatorIwEEEE
00000000001404c4 W _ZNSt6__ndk111basic_regexIwNS_12regex_traitsIwEEE24__parse_collating_symbolINS_11__wrap_iterIPKwEEEET_S9_S9_RNS_12basic_stringIwNS_11char_traitsIwEENS_9allocatorIwEEEE
000000000013aa2c W _ZNSt6__ndk111basic_regexIwNS_12regex_traitsIwEEE24__parse_extended_reg_expINS_11__wrap_iterIPKwEEEET_S9_S9_
000000000014012c W _ZNSt6__ndk111basic_regexIwNS_12regex_traitsIwEEE25__parse_equivalence_classINS_11__wrap_iterIPKwEEEET_S9_S9_PNS_20__bracket_expressionIwS2_EE
000000000013d244 W _ZNSt6__ndk111basic_regexIwNS_12regex_traitsIwEEE25__parse_pattern_characterINS_11__wrap_iterIPKwEEEET_S9_S9_
000000000013d0f0 W _ZNSt6__ndk111basic_regexIwNS_12regex_traitsIwEEE26__parse_bracket_expressionINS_11__wrap_iterIPKwEEEET_S9_S9_
000000000013d304 W _ZNSt6__ndk111basic_regexIwNS_12regex_traitsIwEEE30__parse_character_class_escapeINS_11__wrap_iterIPKwEEEET_S9_S9_
0000000000143820 W _ZNSt6__ndk111basic_regexIwNS_12regex_traitsIwEEE32__parse_one_char_or_coll_elem_REINS_11__wrap_iterIPKwEEEET_S9_S9_
0000000000143ca4 W _ZNSt6__ndk111basic_regexIwNS_12regex_traitsIwEEE33__parse_one_char_or_coll_elem_EREINS_11__wrap_iterIPKwEEEET_S9_S9_
000000000013a428 W _ZNSt6__ndk111basic_regexIwNS_12regex_traitsIwEEE7__parseINS_11__wrap_iterIPKwEEEET_S9_S9_
000000000013a2a8 W _ZNSt6__ndk111basic_regexIwNS_12regex_traitsIwEEEC2B8ne180000INS_11char_traitsIwEENS_9allocatorIwEEEERKNS_12basic_stringIwT_T0_EENS_15regex_constants18syntax_option_typeE
000000000013a37c W _ZNSt6__ndk111basic_regexIwNS_12regex_traitsIwEEED2Ev
00000000000cbcd0 W _ZNSt6__ndk112__hash_tableINS_17__hash_value_typeINS_12basic_stringIcNS_11char_traitsIcEENS_9allocatorIcEEEE23llama_model_kv_overrideEENS_22__unordered_map_hasherIS7_S9_NS_4hashIS7_EENS_8equal_toIS7_EELb1EEENS_21__unordered_map_equalIS7_S9_SE_SC_Lb1EEENS5_IS9_EEE11__do_rehashILb1EEEvm
00000000000cb7b8 W _ZNSt6__ndk112__hash_tableINS_17__hash_value_typeINS_12basic_stringIcNS_11char_traitsIcEENS_9allocatorIcEEEE23llama_model_kv_overrideEENS_22__unordered_map_hasherIS7_S9_NS_4hashIS7_EENS_8equal_toIS7_EELb1EEENS_21__unordered_map_equalIS7_S9_SE_SC_Lb1EEENS5_IS9_EEE25__emplace_unique_key_argsIS7_JNS_4pairIKS7_S8_EEEEENSL_INS_15__hash_iteratorIPNS_11__hash_nodeIS9_PvEEEEbEERKT_DpOT0_
00000000000c9fb0 W _ZNSt6__ndk112__hash_tableINS_17__hash_value_typeINS_12basic_stringIcNS_11char_traitsIcEENS_9allocatorIcEEEE23llama_model_kv_overrideEENS_22__unordered_map_hasherIS7_S9_NS_4hashIS7_EENS_8equal_toIS7_EELb1EEENS_21__unordered_map_equalIS7_S9_SE_SC_Lb1EEENS5_IS9_EEE4findIS7_EENS_15__hash_iteratorIPNS_11__hash_nodeIS9_PvEEEERKT_
0000000000081b60 W _ZNSt6__ndk112__hash_tableINS_17__hash_value_typeINS_12basic_stringIcNS_11char_traitsIcEENS_9allocatorIcEEEE25llama_adapter_lora_weightEENS_22__unordered_map_hasherIS7_S9_NS_4hashIS7_EENS_8equal_toIS7_EELb1EEENS_21__unordered_map_equalIS7_S9_SE_SC_Lb1EEENS5_IS9_EEE11__do_rehashILb1EEEvm
0000000000081204 W _ZNSt6__ndk112__hash_tableINS_17__hash_value_typeINS_12basic_stringIcNS_11char_traitsIcEENS_9allocatorIcEEEE25llama_adapter_lora_weightEENS_22__unordered_map_hasherIS7_S9_NS_4hashIS7_EENS_8equal_toIS7_EELb1EEENS_21__unordered_map_equalIS7_S9_SE_SC_Lb1EEENS5_IS9_EEE25__emplace_unique_key_argsIS7_JRKNS_21piecewise_construct_tENS_5tupleIJRKS7_EEENSO_IJEEEEEENS_4pairINS_15__hash_iteratorIPNS_11__hash_nodeIS9_PvEEEEbEERKT_DpOT0_
0000000000082170 W _ZNSt6__ndk112__hash_tableINS_17__hash_value_typeINS_12basic_stringIcNS_11char_traitsIcEENS_9allocatorIcEEEE25llama_adapter_lora_weightEENS_22__unordered_map_hasherIS7_S9_NS_4hashIS7_EENS_8equal_toIS7_EELb1EEENS_21__unordered_map_equalIS7_S9_SE_SC_Lb1EEENS5_IS9_EEE4findIS7_EENS_15__hash_iteratorIPNS_11__hash_nodeIS9_PvEEEERKT_
00000000000eba84 W _ZNSt6__ndk112__hash_tableINS_17__hash_value_typeINS_12basic_stringIcNS_11char_traitsIcEENS_9allocatorIcEEEES7_EENS_22__unordered_map_hasherIS7_S8_NS_4hashIS7_EENS_8equal_toIS7_EELb1EEENS_21__unordered_map_equalIS7_S8_SD_SB_Lb1EEENS5_IS8_EEE11__do_rehashILb1EEEvm
00000000000eb380 W _ZNSt6__ndk112__hash_tableINS_17__hash_value_typeINS_12basic_stringIcNS_11char_traitsIcEENS_9allocatorIcEEEES7_EENS_22__unordered_map_hasherIS7_S8_NS_4hashIS7_EENS_8equal_toIS7_EELb1EEENS_21__unordered_map_equalIS7_S8_SD_SB_Lb1EEENS5_IS8_EEE21__emplace_unique_implIJRPKcRKS7_EEENS_4pairINS_15__hash_iteratorIPNS_11__hash_nodeIS8_PvEEEEbEEDpOT_
00000000001396e0 W _ZNSt6__ndk112__hash_tableINS_17__hash_value_typeINS_12basic_stringIcNS_11char_traitsIcEENS_9allocatorIcEEEEhEENS_22__unordered_map_hasherIS7_S8_NS_4hashIS7_EENS_8equal_toIS7_EELb1EEENS_21__unordered_map_equalIS7_S8_SD_SB_Lb1EEENS5_IS8_EEE11__do_rehashILb1EEEvm
0000000000139228 W _ZNSt6__ndk112__hash_tableINS_17__hash_value_typeINS_12basic_stringIcNS_11char_traitsIcEENS_9allocatorIcEEEEhEENS_22__unordered_map_hasherIS7_S8_NS_4hashIS7_EENS_8equal_toIS7_EELb1EEENS_21__unordered_map_equalIS7_S8_SD_SB_Lb1EEENS5_IS8_EEE25__emplace_unique_key_argsIS7_JRKNS_21piecewise_construct_tENS_5tupleIJOS7_EEENSN_IJEEEEEENS_4pairINS_15__hash_iteratorIPNS_11__hash_nodeIS8_PvEEEEbEERKT_DpOT0_
00000000001398b8 W _ZNSt6__ndk112__hash_tableINS_17__hash_value_typeINS_12basic_stringIcNS_11char_traitsIcEENS_9allocatorIcEEEEhEENS_22__unordered_map_hasherIS7_S8_NS_4hashIS7_EENS_8equal_toIS7_EELb1EEENS_21__unordered_map_equalIS7_S8_SD_SB_Lb1EEENS5_IS8_EEE4findIS7_EENS_15__hash_iteratorIPNS_11__hash_nodeIS8_PvEEEERKT_
000000000012d4dc W _ZNSt6__ndk112__hash_tableINS_17__hash_value_typeINS_12basic_stringIcNS_11char_traitsIcEENS_9allocatorIcEEEEiEENS_22__unordered_map_hasherIS7_S8_NS_4hashIS7_EENS_8equal_toIS7_EELb1EEENS_21__unordered_map_equalIS7_S8_SD_SB_Lb1EEENS5_IS8_EEE11__do_rehashILb1EEEvm
000000000012cfcc W _ZNSt6__ndk112__hash_tableINS_17__hash_value_typeINS_12basic_stringIcNS_11char_traitsIcEENS_9allocatorIcEEEEiEENS_22__unordered_map_hasherIS7_S8_NS_4hashIS7_EENS_8equal_toIS7_EELb1EEENS_21__unordered_map_equalIS7_S8_SD_SB_Lb1EEENS5_IS8_EEE25__emplace_unique_key_argsIS7_JRKNS_21piecewise_construct_tENS_5tupleIJRKS7_EEENSN_IJEEEEEENS_4pairINS_15__hash_iteratorIPNS_11__hash_nodeIS8_PvEEEEbEERKT_DpOT0_
000000000013022c W _ZNSt6__ndk112__hash_tableINS_17__hash_value_typeINS_12basic_stringIcNS_11char_traitsIcEENS_9allocatorIcEEEEiEENS_22__unordered_map_hasherIS7_S8_NS_4hashIS7_EENS_8equal_toIS7_EELb1EEENS_21__unordered_map_equalIS7_S8_SD_SB_Lb1EEENS5_IS8_EEE4findIS7_EENS_15__hash_iteratorIPNS_11__hash_nodeIS8_PvEEEERKT_
000000000012ccd4 W _ZNSt6__ndk112__hash_tableINS_17__hash_value_typeINS_4pairINS_12basic_stringIcNS_11char_traitsIcEENS_9allocatorIcEEEES8_EEiEENS_22__unordered_map_hasherIS9_SA_N11llama_vocab4impl9pair_hashENS_8equal_toIS9_EELb1EEENS_21__unordered_map_equalIS9_SA_SG_SE_Lb1EEENS6_ISA_EEE11__do_rehashILb1EEEvm
000000000012c708 W _ZNSt6__ndk112__hash_tableINS_17__hash_value_typeINS_4pairINS_12basic_stringIcNS_11char_traitsIcEENS_9allocatorIcEEEES8_EEiEENS_22__unordered_map_hasherIS9_SA_N11llama_vocab4impl9pair_hashENS_8equal_toIS9_EELb1EEENS_21__unordered_map_equalIS9_SA_SG_SE_Lb1EEENS6_ISA_EEE25__emplace_unique_key_argsIS9_JS9_RiEEENS2_INS_15__hash_iteratorIPNS_11__hash_nodeISA_PvEEEEbEERKT_DpOT0_
0000000000130480 W _ZNSt6__ndk112__hash_tableINS_17__hash_value_typeINS_4pairINS_12basic_stringIcNS_11char_traitsIcEENS_9allocatorIcEEEES8_EEiEENS_22__unordered_map_hasherIS9_SA_N11llama_vocab4impl9pair_hashENS_8equal_toIS9_EELb1EEENS_21__unordered_map_equalIS9_SA_SG_SE_Lb1EEENS6_ISA_EEE4findIS9_EENS_15__hash_iteratorIPNS_11__hash_nodeISA_PvEEEERKT_
000000000009c414 W _ZNSt6__ndk112__hash_tableINS_17__hash_value_typeIP18llama_adapter_lorafEENS_22__unordered_map_hasherIS3_S4_NS_4hashIS3_EENS_8equal_toIS3_EELb1EEENS_21__unordered_map_equalIS3_S4_S9_S7_Lb1EEENS_9allocatorIS4_EEE11__do_rehashILb1EEEvm
000000000009c0b0 W _ZNSt6__ndk112__hash_tableINS_17__hash_value_typeIP18llama_adapter_lorafEENS_22__unordered_map_hasherIS3_S4_NS_4hashIS3_EENS_8equal_toIS3_EELb1EEENS_21__unordered_map_equalIS3_S4_S9_S7_Lb1EEENS_9allocatorIS4_EEE25__emplace_unique_key_argsIS3_JRKNS_21piecewise_construct_tENS_5tupleIJRKS3_EEENSK_IJEEEEEENS_4pairINS_15__hash_iteratorIPNS_11__hash_nodeIS4_PvEEEEbEERKT_DpOT0_
000000000009c5ec W _ZNSt6__ndk112__hash_tableINS_17__hash_value_typeIP18llama_adapter_lorafEENS_22__unordered_map_hasherIS3_S4_NS_4hashIS3_EENS_8equal_toIS3_EELb1EEENS_21__unordered_map_equalIS3_S4_S9_S7_Lb1EEENS_9allocatorIS4_EEE4findIS3_EENS_15__hash_iteratorIPNS_11__hash_nodeIS4_PvEEEERKT_
0000000000139050 W _ZNSt6__ndk112__hash_tableINS_17__hash_value_typeIhNS_12basic_stringIcNS_11char_traitsIcEENS_9allocatorIcEEEEEENS_22__unordered_map_hasherIhS8_NS_4hashIhEENS_8equal_toIhEELb1EEENS_21__unordered_map_equalIhS8_SD_SB_Lb1EEENS5_IS8_EEE11__do_rehashILb1EEEvm
0000000000138ca8 W _ZNSt6__ndk112__hash_tableINS_17__hash_value_typeIhNS_12basic_stringIcNS_11char_traitsIcEENS_9allocatorIcEEEEEENS_22__unordered_map_hasherIhS8_NS_4hashIhEENS_8equal_toIhEELb1EEENS_21__unordered_map_equalIhS8_SD_SB_Lb1EEENS5_IS8_EEE25__emplace_unique_key_argsIhJRKNS_21piecewise_construct_tENS_5tupleIJOhEEENSN_IJEEEEEENS_4pairINS_15__hash_iteratorIPNS_11__hash_nodeIS8_PvEEEEbEERKT_DpOT0_
000000000011aa2c W _ZNSt6__ndk112__hash_tableINS_17__hash_value_typeIiNS_6vectorIiNS_9allocatorIiEEEEEENS_22__unordered_map_hasherIiS6_NS_4hashIiEENS_8equal_toIiEELb1EEENS_21__unordered_map_equalIiS6_SB_S9_Lb1EEENS3_IS6_EEE11__do_rehashILb0EEEvm
000000000011bb40 W _ZNSt6__ndk112__hash_tableINS_17__hash_value_typeIiNS_6vectorIiNS_9allocatorIiEEEEEENS_22__unordered_map_hasherIiS6_NS_4hashIiEENS_8equal_toIiEELb1EEENS_21__unordered_map_equalIiS6_SB_S9_Lb1EEENS3_IS6_EEE14__assign_multiINS_21__hash_const_iteratorIPNS_11__hash_nodeIS6_PvEEEEEEvT_SO_
000000000011bd10 W _ZNSt6__ndk112__hash_tableINS_17__hash_value_typeIiNS_6vectorIiNS_9allocatorIiEEEEEENS_22__unordered_map_hasherIiS6_NS_4hashIiEENS_8equal_toIiEELb1EEENS_21__unordered_map_equalIiS6_SB_S9_Lb1EEENS3_IS6_EEE16__construct_nodeIJRKNS_4pairIKiS5_EEEEENS_10unique_ptrINS_11__hash_nodeIS6_PvEENS_22__hash_node_destructorINS3_ISQ_EEEEEEDpOT_
000000000011c2ec W _ZNSt6__ndk112__hash_tableINS_17__hash_value_typeIiiEENS_22__unordered_map_hasherIiS2_NS_4hashIiEENS_8equal_toIiEELb1EEENS_21__unordered_map_equalIiS2_S7_S5_Lb1EEENS_9allocatorIS2_EEE11__do_rehashILb0EEEvm
0000000000119d7c W _ZNSt6__ndk112__hash_tableINS_17__hash_value_typeIiiEENS_22__unordered_map_hasherIiS2_NS_4hashIiEENS_8equal_toIiEELb1EEENS_21__unordered_map_equalIiS2_S7_S5_Lb1EEENS_9allocatorIS2_EEE11__do_rehashILb1EEEvm
000000000011bde0 W _ZNSt6__ndk112__hash_tableINS_17__hash_value_typeIiiEENS_22__unordered_map_hasherIiS2_NS_4hashIiEENS_8equal_toIiEELb1EEENS_21__unordered_map_equalIiS2_S7_S5_Lb1EEENS_9allocatorIS2_EEE14__assign_multiINS_21__hash_const_iteratorIPNS_11__hash_nodeIS2_PvEEEEEEvT_SL_
0000000000119f54 W _ZNSt6__ndk112__hash_tableINS_17__hash_value_typeIiiEENS_22__unordered_map_hasherIiS2_NS_4hashIiEENS_8equal_toIiEELb1EEENS_21__unordered_map_equalIiS2_S7_S5_Lb1EEENS_9allocatorIS2_EEE14__erase_uniqueIiEEmRKT_
0000000000119a54 W _ZNSt6__ndk112__hash_tableINS_17__hash_value_typeIiiEENS_22__unordered_map_hasherIiS2_NS_4hashIiEENS_8equal_toIiEELb1EEENS_21__unordered_map_equalIiS2_S7_S5_Lb1EEENS_9allocatorIS2_EEE25__emplace_unique_key_argsIiJRKNS_21piecewise_construct_tENS_5tupleIJRKiEEENSI_IJEEEEEENS_4pairINS_15__hash_iteratorIPNS_11__hash_nodeIS2_PvEEEEbEERKT_DpOT0_
00000000000ec414 W _ZNSt6__ndk112__hash_tableINS_17__hash_value_typeIjP19ggml_backend_bufferEENS_22__unordered_map_hasherIjS4_NS_4hashIjEENS_8equal_toIjEELb1EEENS_21__unordered_map_equalIjS4_S9_S7_Lb1EEENS_9allocatorIS4_EEE11__do_rehashILb1EEEvm
00000000000ece74 W _ZNSt6__ndk112__hash_tableINS_17__hash_value_typeIjP19ggml_backend_bufferEENS_22__unordered_map_hasherIjS4_NS_4hashIjEENS_8equal_toIjEELb1EEENS_21__unordered_map_equalIjS4_S9_S7_Lb1EEENS_9allocatorIS4_EEE25__emplace_unique_key_argsIjJRKNS_4pairIKjS3_EEEEENSH_INS_15__hash_iteratorIPNS_11__hash_nodeIS4_PvEEEEbEERKT_DpOT0_
00000000000ec5ec W _ZNSt6__ndk112__hash_tableINS_17__hash_value_typeIjP19ggml_backend_bufferEENS_22__unordered_map_hasherIjS4_NS_4hashIjEENS_8equal_toIjEELb1EEENS_21__unordered_map_equalIjS4_S9_S7_Lb1EEENS_9allocatorIS4_EEE25__emplace_unique_key_argsIjJRjRS3_EEENS_4pairINS_15__hash_iteratorIPNS_11__hash_nodeIS4_PvEEEEbEERKT_DpOT0_
00000000001309a4 W _ZNSt6__ndk112__hash_tableIjNS_4hashIjEENS_8equal_toIjEENS_9allocatorIjEEE11__do_rehashILb1EEEvm
00000000001306a0 W _ZNSt6__ndk112__hash_tableIjNS_4hashIjEENS_8equal_toIjEENS_9allocatorIjEEE25__emplace_unique_key_argsIjJRKjEEENS_4pairINS_15__hash_iteratorIPNS_11__hash_nodeIjPvEEEEbEERKT_DpOT0_
00000000000abcd4 W _ZNSt6__ndk112__match_charIcED0Ev
000000000013ddd4 W _ZNSt6__ndk112__match_charIwED0Ev
0000000000081184 W _ZNSt6__ndk112basic_stringIcNS_11char_traitsIcEENS_9allocatorIcEEE25__init_copy_ctor_externalEPKcm
000000000007caf0 W _ZNSt6__ndk112basic_stringIcNS_11char_traitsIcEENS_9allocatorIcEEEC2B8ne180000ILi0EEEPKc
000000000013a20c W _ZNSt6__ndk112basic_stringIwNS_11char_traitsIwEENS_9allocatorIwEEE25__init_copy_ctor_externalEPKwm
0000000000139ec4 W _ZNSt6__ndk112basic_stringIwNS_11char_traitsIwEENS_9allocatorIwEEE6appendB8ne180000IPKwTnNS_9enable_ifIXsr31__has_forward_iterator_categoryIT_EE5valueEiE4typeELi0EEERS5_SA_SA_
00000000000a8df4 W _ZNSt6__ndk113__empty_stateIcED0Ev
000000000013afc0 W _ZNSt6__ndk113__empty_stateIwED0Ev
00000000000b210c W _ZNSt6__ndk113match_resultsINS_11__wrap_iterIPKcEENS_9allocatorINS_9sub_matchIS4_EEEEE8__assignB8ne180000IS3_NS5_INS6_IS3_EEEEEEvS4_S4_RKNS0_IT_T0_EEb
0000000000107550 W _ZNSt6__ndk114basic_ofstreamIcNS_11char_traitsIcEEED1Ev
0000000000118ebc W _ZNSt6__ndk114regex_iteratorIPKccNS_12regex_traitsIcEEEppEv
00000000000a9b2c W _ZNSt6__ndk115__word_boundaryIcNS_12regex_traitsIcEEED0Ev
00000000000a9ad0 W _ZNSt6__ndk115__word_boundaryIcNS_12regex_traitsIcEEED2Ev
000000000013bd7c W _ZNSt6__ndk115__word_boundaryIwNS_12regex_traitsIwEEED0Ev
000000000013bd20 W _ZNSt6__ndk115__word_boundaryIwNS_12regex_traitsIwEEED2Ev
00000000000abdc0 W _ZNSt6__ndk116__back_ref_icaseIcNS_12regex_traitsIcEEED0Ev
00000000000abd64 W _ZNSt6__ndk116__back_ref_icaseIcNS_12regex_traitsIcEEED2Ev
000000000013dec0 W _ZNSt6__ndk116__back_ref_icaseIwNS_12regex_traitsIwEEED0Ev
000000000013de64 W _ZNSt6__ndk116__back_ref_icaseIwNS_12regex_traitsIwEEED2Ev
00000000000a8e50 W _ZNSt6__ndk116__owns_one_stateIcED0Ev
00000000000b1184 W _ZNSt6__ndk116__owns_one_stateIcED2Ev
000000000013b01c W _ZNSt6__ndk116__owns_one_stateIwED0Ev
000000000014394c W _ZNSt6__ndk116__owns_one_stateIwED2Ev
00000000000cd774 W _ZNSt6__ndk117__assoc_sub_stateD2Ev
00000000000b0a40 W _ZNSt6__ndk117__repeat_one_loopIcED0Ev
0000000000143190 W _ZNSt6__ndk117__repeat_one_loopIwED0Ev
00000000000abf6c W _ZNSt6__ndk118__back_ref_collateIcNS_12regex_traitsIcEEED0Ev
00000000000abf10 W _ZNSt6__ndk118__back_ref_collateIcNS_12regex_traitsIcEEED2Ev
000000000013e06c W _ZNSt6__ndk118__back_ref_collateIwNS_12regex_traitsIwEEED0Ev
000000000013e010 W _ZNSt6__ndk118__back_ref_collateIwNS_12regex_traitsIwEEED2Ev
00000000000abb00 W _ZNSt6__ndk118__match_char_icaseIcNS_12regex_traitsIcEEED0Ev
00000000000abaa4 W _ZNSt6__ndk118__match_char_icaseIcNS_12regex_traitsIcEEED2Ev
000000000013dc00 W _ZNSt6__ndk118__match_char_icaseIwNS_12regex_traitsIwEEED0Ev
000000000013dba4 W _ZNSt6__ndk118__match_char_icaseIwNS_12regex_traitsIwEEED2Ev
00000000000907d8 W _ZNSt6__ndk118basic_stringstreamIcNS_11char_traitsIcEENS_9allocatorIcEEED1Ev
000000000004cd35 V _ZNSt6__ndk119piecewise_constructE
00000000000ac9ec W _ZNSt6__ndk120__bracket_expressionIcNS_12regex_traitsIcEEED0Ev
00000000000ac8a0 W _ZNSt6__ndk120__bracket_expressionIcNS_12regex_traitsIcEEED2Ev
000000000013eab4 W _ZNSt6__ndk120__bracket_expressionIwNS_12regex_traitsIwEEED0Ev
000000000013e968 W _ZNSt6__ndk120__bracket_expressionIwNS_12regex_traitsIwEEED2Ev
00000000000a9988 W _ZNSt6__ndk120__l_anchor_multilineIcED0Ev
000000000013bbd8 W _ZNSt6__ndk120__l_anchor_multilineIwED0Ev
00000000000abc34 W _ZNSt6__ndk120__match_char_collateIcNS_12regex_traitsIcEEED0Ev
00000000000abbd8 W _ZNSt6__ndk120__match_char_collateIcNS_12regex_traitsIcEEED2Ev
000000000013dd34 W _ZNSt6__ndk120__match_char_collateIwNS_12regex_traitsIwEEED0Ev
000000000013dcd8 W _ZNSt6__ndk120__match_char_collateIwNS_12regex_traitsIwEEED2Ev
00000000000a9a34 W _ZNSt6__ndk120__r_anchor_multilineIcED0Ev
000000000013bc84 W _ZNSt6__ndk120__r_anchor_multilineIwED0Ev
00000000000a8d98 W _ZNSt6__ndk120__shared_ptr_pointerIPNS_13__empty_stateIcEENS_10shared_ptrIS2_E27__shared_ptr_default_deleteIS2_S2_EENS_9allocatorIS2_EEED0Ev
000000000013af64 W _ZNSt6__ndk120__shared_ptr_pointerIPNS_13__empty_stateIwEENS_10shared_ptrIS2_E27__shared_ptr_default_deleteIS2_S2_EENS_9allocatorIS2_EEED0Ev
00000000000b0b60 W _ZNSt6__ndk121__empty_non_own_stateIcED0Ev
00000000001432b0 W _ZNSt6__ndk121__empty_non_own_stateIwED0Ev
000000000010dc78 W _ZNSt6__ndk121discrete_distributionIiEclINS_23mersenne_twister_engineImLm32ELm624ELm397ELm31ELm2567483615ELm11ELm4294967295ELm7ELm2636928640ELm15ELm4022730752ELm18ELm1812433253EEEEEiRT_RKNS1_10param_typeE
00000000000ab144 W _ZNSt6__ndk123__match_any_but_newlineIcED0Ev
000000000013d2bc W _ZNSt6__ndk123__match_any_but_newlineIwED0Ev
00000000000b0490 W _ZNSt6__ndk126__end_marked_subexpressionIcED0Ev
0000000000142c78 W _ZNSt6__ndk126__end_marked_subexpressionIwED0Ev
00000000000b0418 W _ZNSt6__ndk128__begin_marked_subexpressionIcED0Ev
0000000000142c00 W _ZNSt6__ndk128__begin_marked_subexpressionIwED0Ev
0000000000086480 W _ZNSt6__ndk13mapI10llm_tensorPKcNS_4lessIS1_EENS_9allocatorINS_4pairIKS1_S3_EEEEE6insertB8ne180000INS_20__map_const_iteratorINS_21__tree_const_iteratorINS_12__value_typeIS1_S3_EEPNS_11__tree_nodeISG_PvEElEEEEEEvT_SN_
00000000000eb67c W _ZNSt6__ndk14pairIKNS_12basic_stringIcNS_11char_traitsIcEENS_9allocatorIcEEEES6_EC2B8ne180000IRPKcRS7_TnNS_9enable_ifIXclsr10_CheckArgsE17__enable_implicitIT_T0_EEEiE4typeELi0EEEOSF_OSG_
0000000000138444 W _ZNSt6__ndk14pairIKNS_12basic_stringIcNS_11char_traitsIcEENS_9allocatorIcEEEEiEC2B8ne180000IRA6_KcN17unicode_cpt_flagsUt_ETnNS_9enable_ifIXclsr10_CheckArgsE17__enable_implicitIT_T0_EEEiE4typeELi0EEEOSG_OSH_
000000000013896c W _ZNSt6__ndk14pairIKiNS_12basic_stringIcNS_11char_traitsIcEENS_9allocatorIcEEEEEC2B8ne180000IN17unicode_cpt_flagsUt_ERA12_KcTnNS_9enable_ifIXclsr10_CheckArgsE17__enable_implicitIT_T0_EEEiE4typeELi0EEEOSG_OSH_
00000000001388b4 W _ZNSt6__ndk14pairIKiNS_12basic_stringIcNS_11char_traitsIcEENS_9allocatorIcEEEEEC2B8ne180000IN17unicode_cpt_flagsUt_ERA1_KcTnNS_9enable_ifIXclsr10_CheckArgsE17__enable_implicitIT_T0_EEEiE4typeELi0EEEOSG_OSH_
00000000001387fc W _ZNSt6__ndk14pairIKiNS_12basic_stringIcNS_11char_traitsIcEENS_9allocatorIcEEEEEC2B8ne180000IN17unicode_cpt_flagsUt_ERA26_KcTnNS_9enable_ifIXclsr10_CheckArgsE17__enable_implicitIT_T0_EEEiE4typeELi0EEEOSG_OSH_
000000000013868c W _ZNSt6__ndk14pairIKiNS_12basic_stringIcNS_11char_traitsIcEENS_9allocatorIcEEEEEC2B8ne180000IN17unicode_cpt_flagsUt_ERA4_KcTnNS_9enable_ifIXclsr10_CheckArgsE17__enable_implicitIT_T0_EEEiE4typeELi0EEEOSG_OSH_
0000000000138744 W _ZNSt6__ndk14pairIKiNS_12basic_stringIcNS_11char_traitsIcEENS_9allocatorIcEEEEEC2B8ne180000IN17unicode_cpt_flagsUt_ERA7_KcTnNS_9enable_ifIXclsr10_CheckArgsE17__enable_implicitIT_T0_EEEiE4typeELi0EEEOSG_OSH_
00000000000ad498 W _ZNSt6__ndk14pairINS_12basic_stringIcNS_11char_traitsIcEENS_9allocatorIcEEEES6_ED2Ev
000000000013f414 W _ZNSt6__ndk14pairINS_12basic_stringIwNS_11char_traitsIwEENS_9allocatorIwEEEES6_ED2Ev
00000000000b06e8 W _ZNSt6__ndk16__loopIcED0Ev
0000000000142e38 W _ZNSt6__ndk16__loopIwED0Ev
0000000000086f14 W _ZNSt6__ndk16__treeINS_12__value_typeI10llm_tensor15llm_tensor_infoEENS_19__map_value_compareIS2_S4_NS_4lessIS2_EELb1EEENS_9allocatorIS4_EEE12__find_equalIS2_EERPNS_16__tree_node_baseIPvEENS_21__tree_const_iteratorIS4_PNS_11__tree_nodeIS4_SE_EElEERPNS_15__tree_end_nodeISG_EESH_RKT_
00000000000865a4 W _ZNSt6__ndk16__treeINS_12__value_typeI10llm_tensorPKcEENS_19__map_value_compareIS2_S5_NS_4lessIS2_EELb1EEENS_9allocatorIS5_EEE12__find_equalIS2_EERPNS_16__tree_node_baseIPvEENS_21__tree_const_iteratorIS5_PNS_11__tree_nodeIS5_SF_EElEERPNS_15__tree_end_nodeISH_EESI_RKT_
00000000000eaf50 W _ZNSt6__ndk16__treeINS_12__value_typeI23llama_rope_scaling_typePKcEENS_19__map_value_compareIS2_S5_NS_4lessIS2_EELb1EEENS_9allocatorIS5_EEE12__find_equalIS2_EERPNS_16__tree_node_baseIPvEENS_21__tree_const_iteratorIS5_PNS_11__tree_nodeIS5_SF_EElEERPNS_15__tree_end_nodeISH_EESI_RKT_
000000000008698c W _ZNSt6__ndk16__treeINS_12__value_typeI6llm_kvPKcEENS_19__map_value_compareIS2_S5_NS_4lessIS2_EELb1EEENS_9allocatorIS5_EEE12__find_equalIS2_EERPNS_16__tree_node_baseIPvEENS_21__tree_const_iteratorIS5_PNS_11__tree_nodeIS5_SF_EElEERPNS_15__tree_end_nodeISH_EESI_RKT_
0000000000086ccc W _ZNSt6__ndk16__treeINS_12__value_typeI8llm_archNS_3mapI10llm_tensorPKcNS_4lessIS4_EENS_9allocatorINS_4pairIKS4_S6_EEEEEEEENS_19__map_value_compareIS2_SF_NS7_IS2_EELb1EEENS9_ISF_EEE12__find_equalIS2_EERPNS_16__tree_node_baseIPvEENS_21__tree_const_iteratorISF_PNS_11__tree_nodeISF_SN_EElEERPNS_15__tree_end_nodeISP_EESQ_RKT_
0000000000086b80 W _ZNSt6__ndk16__treeINS_12__value_typeI8llm_archNS_3mapI10llm_tensorPKcNS_4lessIS4_EENS_9allocatorINS_4pairIKS4_S6_EEEEEEEENS_19__map_value_compareIS2_SF_NS7_IS2_EELb1EEENS9_ISF_EEE30__emplace_hint_unique_key_argsIS2_JRKNSA_IKS2_SE_EEEEENSA_INS_15__tree_iteratorISF_PNS_11__tree_nodeISF_PvEElEEbEENS_21__tree_const_iteratorISF_SU_lEERKT_DpOT0_
0000000000086798 W _ZNSt6__ndk16__treeINS_12__value_typeI8llm_archPKcEENS_19__map_value_compareIS2_S5_NS_4lessIS2_EELb1EEENS_9allocatorIS5_EEE12__find_equalIS2_EERPNS_16__tree_node_baseIPvEENS_21__tree_const_iteratorIS5_PNS_11__tree_nodeIS5_SF_EElEERPNS_15__tree_end_nodeISH_EESI_RKT_
0000000000090a18 W _ZNSt6__ndk16__treeINS_12__value_typeINS_12basic_stringIcNS_11char_traitsIcEENS_9allocatorIcEEEE17llm_chat_templateEENS_19__map_value_compareIS7_S9_NS_4lessIS7_EELb1EEENS5_IS9_EEE12__find_equalIS7_EERPNS_16__tree_node_baseIPvEENS_21__tree_const_iteratorIS9_PNS_11__tree_nodeIS9_SI_EElEERPNS_15__tree_end_nodeISK_EESL_RKT_
00000000000908dc W _ZNSt6__ndk16__treeINS_12__value_typeINS_12basic_stringIcNS_11char_traitsIcEENS_9allocatorIcEEEE17llm_chat_templateEENS_19__map_value_compareIS7_S9_NS_4lessIS7_EELb1EEENS5_IS9_EEE30__emplace_hint_unique_key_argsIS7_JRKNS_4pairIKS7_S8_EEEEENSH_INS_15__tree_iteratorIS9_PNS_11__tree_nodeIS9_PvEElEEbEENS_21__tree_const_iteratorIS9_SQ_lEERKT_DpOT0_
0000000000080f40 W _ZNSt6__ndk16__treeINS_12__value_typeINS_12basic_stringIcNS_11char_traitsIcEENS_9allocatorIcEEEE25llama_adapter_lora_weightEENS_19__map_value_compareIS7_S9_NS_4lessIS7_EELb1EEENS5_IS9_EEE25__emplace_unique_key_argsIS7_JRKNS_21piecewise_construct_tENS_5tupleIJRKS7_EEENSK_IJEEEEEENS_4pairINS_15__tree_iteratorIS9_PNS_11__tree_nodeIS9_PvEElEEbEERKT_DpOT0_
0000000000080e20 W _ZNSt6__ndk16__treeINS_12__value_typeINS_12basic_stringIcNS_11char_traitsIcEENS_9allocatorIcEEEE25llama_adapter_lora_weightEENS_19__map_value_compareIS7_S9_NS_4lessIS7_EELb1EEENS5_IS9_EEE4findIS7_EENS_15__tree_iteratorIS9_PNS_11__tree_nodeIS9_PvEElEERKT_
00000000000cc17c W _ZNSt6__ndk16__treeINS_12__value_typeINS_12basic_stringIcNS_11char_traitsIcEENS_9allocatorIcEEEEN18llama_model_loader19llama_tensor_weightEEENS_19__map_value_compareIS7_SA_NS8_20weight_name_comparerELb1EEENS5_ISA_EEE25__emplace_unique_key_argsIS7_JRS7_S9_EEENS_4pairINS_15__tree_iteratorISA_PNS_11__tree_nodeISA_PvEElEEbEERKT_DpOT0_
000000000012a5fc W _ZNSt6__ndk16__treeINS_12__value_typeINS_12basic_stringIcNS_11char_traitsIcEENS_9allocatorIcEEEENS_4pairIiiEEEENS_19__map_value_compareIS7_SA_NS_4lessIS7_EELb1EEENS5_ISA_EEE25__emplace_unique_key_argsIS7_JRKNS_21piecewise_construct_tENS_5tupleIJRKS7_EEENSL_IJEEEEEENS8_INS_15__tree_iteratorISA_PNS_11__tree_nodeISA_PvEElEEbEERKT_DpOT0_
000000000012aa4c W _ZNSt6__ndk16__treeINS_12__value_typeINS_12basic_stringIcNS_11char_traitsIcEENS_9allocatorIcEEEENS_4pairIiiEEEENS_19__map_value_compareIS7_SA_NS_4lessIS7_EELb1EEENS5_ISA_EEE4findIS7_EENS_15__tree_iteratorISA_PNS_11__tree_nodeISA_PvEElEERKT_
00000000001469e8 W _ZNSt6__ndk16__treeINS_12__value_typeINS_12basic_stringIcNS_11char_traitsIcEENS_9allocatorIcEEEEiEENS_19__map_value_compareIS7_S8_NS_4lessIS7_EELb1EEENS5_IS8_EEE12__find_equalIS7_EERPNS_16__tree_node_baseIPvEENS_21__tree_const_iteratorIS8_PNS_11__tree_nodeIS8_SH_EElEERPNS_15__tree_end_nodeISJ_EESK_RKT_
00000000001468ac W _ZNSt6__ndk16__treeINS_12__value_typeINS_12basic_stringIcNS_11char_traitsIcEENS_9allocatorIcEEEEiEENS_19__map_value_compareIS7_S8_NS_4lessIS7_EELb1EEENS5_IS8_EEE30__emplace_hint_unique_key_argsIS7_JRKNS_4pairIKS7_iEEEEENSG_INS_15__tree_iteratorIS8_PNS_11__tree_nodeIS8_PvEElEEbEENS_21__tree_const_iteratorIS8_SP_lEERKT_DpOT0_
00000000000a76cc W _ZNSt6__ndk16__treeINS_12__value_typeINS_12basic_stringIcNS_11char_traitsIcEENS_9allocatorIcEEEEjEENS_19__map_value_compareIS7_S8_NS_4lessIS7_EELb1EEENS5_IS8_EEE25__emplace_unique_key_argsIS7_JRKNS_21piecewise_construct_tENS_5tupleIJOS7_EEENSJ_IJEEEEEENS_4pairINS_15__tree_iteratorIS8_PNS_11__tree_nodeIS8_PvEElEEbEERKT_DpOT0_
00000000000a7548 W _ZNSt6__ndk16__treeINS_12__value_typeINS_12basic_stringIcNS_11char_traitsIcEENS_9allocatorIcEEEEjEENS_19__map_value_compareIS7_S8_NS_4lessIS7_EELb1EEENS5_IS8_EEE25__emplace_unique_key_argsIS7_JS7_RjEEENS_4pairINS_15__tree_iteratorIS8_PNS_11__tree_nodeIS8_PvEElEEbEERKT_DpOT0_
00000000000a7c80 W _ZNSt6__ndk16__treeINS_12__value_typeINS_12basic_stringIcNS_11char_traitsIcEENS_9allocatorIcEEEEjEENS_19__map_value_compareIS7_S8_NS_4lessIS7_EELb1EEENS5_IS8_EEE4findIS7_EENS_15__tree_iteratorIS8_PNS_11__tree_nodeIS8_PvEElEERKT_
00000000001471ac W _ZNSt6__ndk16__treeINS_12__value_typeIiNS_12basic_stringIcNS_11char_traitsIcEENS_9allocatorIcEEEEEENS_19__map_value_compareIiS8_NS_4lessIiEELb1EEENS5_IS8_EEE12__find_equalIiEERPNS_16__tree_node_baseIPvEENS_21__tree_const_iteratorIS8_PNS_11__tree_nodeIS8_SH_EElEERPNS_15__tree_end_nodeISJ_EESK_RKT_
000000000014706c W _ZNSt6__ndk16__treeINS_12__value_typeIiNS_12basic_stringIcNS_11char_traitsIcEENS_9allocatorIcEEEEEENS_19__map_value_compareIiS8_NS_4lessIiEELb1EEENS5_IS8_EEE30__emplace_hint_unique_key_argsIiJRKNS_4pairIKiS7_EEEEENSG_INS_15__tree_iteratorIS8_PNS_11__tree_nodeIS8_PvEElEEbEENS_21__tree_const_iteratorIS8_SP_lEERKT_DpOT0_
0000000000146e78 W _ZNSt6__ndk16__treeINS_12__value_typeIiiEENS_19__map_value_compareIiS2_NS_4lessIiEELb1EEENS_9allocatorIS2_EEE12__find_equalIiEERPNS_16__tree_node_baseIPvEENS_21__tree_const_iteratorIS2_PNS_11__tree_nodeIS2_SC_EElEERPNS_15__tree_end_nodeISE_EESF_RKT_
00000000000c060c W _ZNSt6__ndk16__treeIiNS_4lessIiEENS_9allocatorIiEEE14__assign_multiINS_21__tree_const_iteratorIiPNS_11__tree_nodeIiPvEElEEEEvT_SD_
000000000012b698 W _ZNSt6__ndk16vectorI10llm_symbolNS_9allocatorIS1_EEE18__assign_with_sizeB8ne180000IPS1_S6_EEvT_T0_l
000000000012afe0 W _ZNSt6__ndk16vectorI14llm_bigram_bpeNS_9allocatorIS1_EEE21__push_back_slow_pathIRKS1_EEPS1_OT_
00000000000a7a60 W _ZNSt6__ndk16vectorI21llama_grammar_elementNS_9allocatorIS1_EEE18__assign_with_sizeB8ne180000IPS1_S6_EEvT_T0_l
00000000000a6e08 W _ZNSt6__ndk16vectorI21llama_grammar_elementNS_9allocatorIS1_EEE18__insert_with_sizeB8ne180000INS_11__wrap_iterIPS1_EES8_EES8_NS6_IPKS1_EET_T0_l
00000000000a7da0 W _ZNSt6__ndk16vectorI29llama_grammar_trigger_patternNS_9allocatorIS1_EEE24__emplace_back_slow_pathIJEEEPS1_DpOT_
00000000000a7180 W _ZNSt6__ndk16vectorINS0_IPK21llama_grammar_elementNS_9allocatorIS3_EEEENS4_IS6_EEE24__emplace_back_slow_pathIJRKS6_EEEPS6_DpOT_
00000000000cbea8 W _ZNSt6__ndk16vectorINS_10unique_ptrI10llama_fileNS_14default_deleteIS2_EEEENS_9allocatorIS5_EEE24__emplace_back_slow_pathIJPS2_EEEPS5_DpOT_
00000000000ccd30 W _ZNSt6__ndk16vectorINS_10unique_ptrI10llama_mmapNS_14default_deleteIS2_EEEENS_9allocatorIS5_EEE24__emplace_back_slow_pathIJS5_EEEPS5_DpOT_
00000000000ec8f0 W _ZNSt6__ndk16vectorINS_10unique_ptrI11llama_mlockNS_14default_deleteIS2_EEEENS_9allocatorIS5_EEE24__emplace_back_slow_pathIJPS2_EEEPS5_DpOT_
00000000000ccb60 W _ZNSt6__ndk16vectorINS_10unique_ptrI11llama_mlockNS_14default_deleteIS2_EEEENS_9allocatorIS5_EEE24__emplace_back_slow_pathIJS5_EEEPS5_DpOT_
000000000009bccc W _ZNSt6__ndk16vectorINS_10unique_ptrI12ggml_backend20ggml_backend_deleterEENS_9allocatorIS4_EEE24__emplace_back_slow_pathIJRPS2_EEEPS4_DpOT_
00000000000807ec W _ZNSt6__ndk16vectorINS_10unique_ptrI12ggml_context20ggml_context_deleterEENS_9allocatorIS4_EEE24__emplace_back_slow_pathIJRPS2_EEEPS4_DpOT_
000000000009b1e0 W _ZNSt6__ndk16vectorINS_10unique_ptrI17llm_graph_input_iNS_14default_deleteIS2_EEEENS_9allocatorIS5_EEE24__emplace_back_slow_pathIJS5_EEEPS5_DpOT_
0000000000081fbc W _ZNSt6__ndk16vectorINS_10unique_ptrI19ggml_backend_buffer27ggml_backend_buffer_deleterEENS_9allocatorIS4_EEE24__emplace_back_slow_pathIJRPS2_EEEPS4_DpOT_
0000000000081d38 W _ZNSt6__ndk16vectorINS_10unique_ptrI19ggml_backend_buffer27ggml_backend_buffer_deleterEENS_9allocatorIS4_EEE24__emplace_back_slow_pathIJS4_EEEPS4_DpOT_
000000000012f540 W _ZNSt6__ndk16vectorINS_12basic_stringIcNS_11char_traitsIcEENS_9allocatorIcEEEENS4_IS6_EEE18__assign_with_sizeB8ne180000IPKS6_SB_EEvT_T0_l
00000000000af6d4 W _ZNSt6__ndk16vectorINS_12basic_stringIcNS_11char_traitsIcEENS_9allocatorIcEEEENS4_IS6_EEE21__push_back_slow_pathIRKS6_EEPS6_OT_
000000000007ddd8 W _ZNSt6__ndk16vectorINS_12basic_stringIcNS_11char_traitsIcEENS_9allocatorIcEEEENS4_IS6_EEE21__push_back_slow_pathIS6_EEPS6_OT_
000000000012bbc8 W _ZNSt6__ndk16vectorINS_12basic_stringIcNS_11char_traitsIcEENS_9allocatorIcEEEENS4_IS6_EEE24__emplace_back_slow_pathIJEEEPS6_DpOT_
0000000000146684 W _ZNSt6__ndk16vectorINS_12basic_stringIcNS_11char_traitsIcEENS_9allocatorIcEEEENS4_IS6_EEE24__emplace_back_slow_pathIJRS6_EEEPS6_DpOT_
0000000000141edc W _ZNSt6__ndk16vectorINS_12basic_stringIwNS_11char_traitsIwEENS_9allocatorIwEEEENS4_IS6_EEE21__push_back_slow_pathIRKS6_EEPS6_OT_
00000000000b1d38 W _ZNSt6__ndk16vectorINS_4pairINS0_IjNS_9allocatorIjEEEE18llama_partial_utf8EENS2_IS6_EEE21__push_back_slow_pathIS6_EEPS6_OT_
00000000000ed178 W _ZNSt6__ndk16vectorINS_4pairINS_12basic_stringIcNS_11char_traitsIcEENS_9allocatorIcEEEEP11ggml_tensorEENS5_ISA_EEE24__emplace_back_slow_pathIJPKcRS9_EEEPSA_DpOT_
00000000000b0238 W _ZNSt6__ndk16vectorINS_4pairINS_12basic_stringIcNS_11char_traitsIcEENS_9allocatorIcEEEES7_EENS5_IS8_EEE21__push_back_slow_pathIS8_EEPS8_OT_
0000000000142a20 W _ZNSt6__ndk16vectorINS_4pairINS_12basic_stringIwNS_11char_traitsIwEENS_9allocatorIwEEEES7_EENS5_IS8_EEE21__push_back_slow_pathIS8_EEPS8_OT_
00000000000ecaac W _ZNSt6__ndk16vectorINS_4pairIP12ggml_contextNS_13unordered_mapIjP19ggml_backend_bufferNS_4hashIjEENS_8equal_toIjEENS_9allocatorINS1_IKjS6_EEEEEEEENSB_ISG_EEE24__emplace_back_slow_pathIJRS3_RSF_EEEPSG_DpOT_
00000000000ebc5c W _ZNSt6__ndk16vectorINS_4pairIP19ggml_backend_deviceP24ggml_backend_buffer_typeEENS_9allocatorIS6_EEE18__insert_with_sizeB8ne180000INS_11__wrap_iterIPS6_EESD_EESD_NSB_IPKS6_EET_T0_l
00000000000b44fc W _ZNSt6__ndk16vectorINS_4pairImPKcEENS_9allocatorIS4_EEE18__assign_with_sizeB8ne180000IPS4_S9_EEvT_T0_l
0000000000146374 W _ZNSt6__ndk16vectorINS_4pairImPKwEENS_9allocatorIS4_EEE18__assign_with_sizeB8ne180000IPS4_S9_EEvT_T0_l
00000000000cd294 W _ZNSt6__ndk16vectorINS_6futureINS_4pairIP11ggml_tensorbEEEENS_9allocatorIS6_EEE24__emplace_back_slow_pathIJS6_EEEPS6_DpOT_
00000000000aa8b4 W _ZNSt6__ndk16vectorINS_7__stateIcEENS_9allocatorIS2_EEE21__push_back_slow_pathIS2_EEPS2_OT_
000000000013ca88 W _ZNSt6__ndk16vectorINS_7__stateIwEENS_9allocatorIS2_EEE21__push_back_slow_pathIS2_EEPS2_OT_
00000000000b42c4 W _ZNSt6__ndk16vectorINS_9sub_matchIPKcEENS_9allocatorIS4_EEE18__assign_with_sizeB8ne180000IPS4_S9_EEvT_T0_l
000000000014613c W _ZNSt6__ndk16vectorINS_9sub_matchIPKwEENS_9allocatorIS4_EEE18__assign_with_sizeB8ne180000IPS4_S9_EEvT_T0_l
000000000007d854 W _ZNSt6__ndk16vectorIP19ggml_backend_deviceNS_9allocatorIS2_EEE18__insert_with_sizeB8ne180000INS_11__wrap_iterIPS2_EES9_EES9_NS7_IPKS2_EET_T0_l
000000000012ceac W _ZNSt6__ndk16vectorIcNS_9allocatorIcEEE18__assign_with_sizeB8ne180000IPKcS6_EEvT_T0_l
000000000011a1c8 W _ZNSt6__ndk16vectorIiNS_9allocatorIiEEE18__assign_with_sizeB8ne180000IPiS5_EEvT_T0_l
0000000000131770 W _ZNSt6__ndk16vectorIjNS_9allocatorIjEEE12emplace_backIJiEEERjDpOT_
00000000000aa658 W _ZNSt6__ndk17__stateIcEC2ERKS1_
00000000000aa5c8 W _ZNSt6__ndk17__stateIcED2Ev
000000000013c878 W _ZNSt6__ndk17__stateIwEC2ERKS1_
000000000013c834 W _ZNSt6__ndk17__stateIwED2Ev
0000000000154d00 V _ZTI13llm_tokenizer
00000000001547f0 V _ZTI14llama_kv_cache
00000000001547e0 V _ZTI14llama_memory_i
0000000000153b30 V _ZTI15llama_io_read_i
0000000000153a80 V _ZTI16llama_io_write_i
0000000000153c48 V _ZTI16llm_graph_result
0000000000153a20 V _ZTI17llm_graph_input_i
0000000000154d48 V _ZTI17llm_tokenizer_bpe
0000000000154d10 V _ZTI17llm_tokenizer_spm
0000000000154db8 V _ZTI17llm_tokenizer_ugm
0000000000154d80 V _ZTI17llm_tokenizer_wpm
0000000000153b90 V _ZTI18llama_io_read_file
0000000000153c38 V _ZTI18llm_graph_result_i
0000000000154df0 V _ZTI18llm_tokenizer_rwkv
0000000000153be0 V _ZTI19llama_io_write_file
0000000000154588 D _ZTI19llm_graph_input_cls
0000000000154448 D _ZTI19llm_graph_input_pos
0000000000153b40 V _ZTI20llama_io_read_buffer
0000000000153a90 V _ZTI20llama_io_write_dummy
0000000000154748 D _ZTI20llm_graph_input_embd
0000000000154548 D _ZTI20llm_graph_input_mean
0000000000153ae0 V _ZTI21llama_io_write_buffer
0000000000154808 D _ZTI22llama_kv_cache_unified
00000000001545c8 D _ZTI22llm_graph_input_s_copy
0000000000154608 D _ZTI22llm_graph_input_s_mask
0000000000153a30 D _ZTI23llm_graph_input_k_shift
0000000000154508 D _ZTI23llm_graph_input_out_ids
0000000000154708 D _ZTI26llm_graph_input_attn_cross
0000000000154648 D _ZTI26llm_graph_input_cross_embd
0000000000154488 D _ZTI26llm_graph_input_pos_bucket
0000000000154688 D _ZTI29llm_graph_input_attn_no_cache
00000000001544c8 D _ZTI29llm_graph_input_pos_bucket_kv
00000000001546c8 D _ZTI31llm_graph_input_attn_kv_unified
0000000000154180 V _ZTINSt6__ndk110__back_refIcEE
0000000000155310 V _ZTINSt6__ndk110__back_refIwEE
0000000000154ca8 V _ZTINSt6__ndk110__function6__baseIFP11ggml_tensorjiEEE
0000000000154998 V _ZTINSt6__ndk110__function6__baseIFjjEEE
0000000000153cf8 V _ZTINSt6__ndk110__function6__baseIFvRK12llama_ubatchP11ggml_tensorPKciEEE
0000000000154378 V _ZTINSt6__ndk111__alternateIcEE
0000000000155508 V _ZTINSt6__ndk111__alternateIwEE
0000000000153d70 V _ZTINSt6__ndk111__end_stateIcEE
0000000000154f00 V _ZTINSt6__ndk111__end_stateIwEE
0000000000153f88 V _ZTINSt6__ndk111__lookaheadIcNS_12regex_traitsIcEEEE
0000000000155118 V _ZTINSt6__ndk111__lookaheadIwNS_12regex_traitsIwEEEE
0000000000154408 V _ZTINSt6__ndk111__match_anyIcEE
0000000000155598 V _ZTINSt6__ndk111__match_anyIwEE
00000000001540a8 V _ZTINSt6__ndk112__match_charIcEE
0000000000155238 V _ZTINSt6__ndk112__match_charIwEE
0000000000154ea8 V _ZTINSt6__ndk112codecvt_utf8IwLm1114111ELNS_12codecvt_modeE0EEE
0000000000153e38 V _ZTINSt6__ndk113__empty_stateIcEE
0000000000154fc8 V _ZTINSt6__ndk113__empty_stateIwEE
0000000000153e08 V _ZTINSt6__ndk115__has_one_stateIcEE
0000000000154f98 V _ZTINSt6__ndk115__has_one_stateIwEE
0000000000153f40 V _ZTINSt6__ndk115__word_boundaryIcNS_12regex_traitsIcEEEE
00000000001550d0 V _ZTINSt6__ndk115__word_boundaryIwNS_12regex_traitsIwEEEE
00000000001540f0 V _ZTINSt6__ndk116__back_ref_icaseIcNS_12regex_traitsIcEEEE
0000000000155280 V _ZTINSt6__ndk116__back_ref_icaseIwNS_12regex_traitsIwEEEE
0000000000153e20 V _ZTINSt6__ndk116__owns_one_stateIcEE
0000000000154fb0 V _ZTINSt6__ndk116__owns_one_stateIwEE
00000000001542a0 V _ZTINSt6__ndk117__owns_two_statesIcEE
0000000000155430 V _ZTINSt6__ndk117__owns_two_statesIwEE
0000000000154330 V _ZTINSt6__ndk117__repeat_one_loopIcEE
00000000001554c0 V _ZTINSt6__ndk117__repeat_one_loopIwEE
0000000000153c60 V _ZTINSt6__ndk117bad_function_callE
0000000000154138 V _ZTINSt6__ndk118__back_ref_collateIcNS_12regex_traitsIcEEEE
00000000001552c8 V _ZTINSt6__ndk118__back_ref_collateIwNS_12regex_traitsIwEEEE
0000000000154018 V _ZTINSt6__ndk118__match_char_icaseIcNS_12regex_traitsIcEEEE
00000000001551a8 V _ZTINSt6__ndk118__match_char_icaseIwNS_12regex_traitsIwEEEE
00000000001541c8 V _ZTINSt6__ndk120__bracket_expressionIcNS_12regex_traitsIcEEEE
0000000000155358 V _ZTINSt6__ndk120__bracket_expressionIwNS_12regex_traitsIwEEEE
0000000000153eb0 V _ZTINSt6__ndk120__l_anchor_multilineIcEE
0000000000155040 V _ZTINSt6__ndk120__l_anchor_multilineIwEE
0000000000154060 V _ZTINSt6__ndk120__match_char_collateIcNS_12regex_traitsIcEEEE
00000000001551f0 V _ZTINSt6__ndk120__match_char_collateIwNS_12regex_traitsIwEEEE
0000000000153ef8 V _ZTINSt6__ndk120__r_anchor_multilineIcEE
0000000000155088 V _ZTINSt6__ndk120__r_anchor_multilineIwEE
0000000000153dc0 V _ZTINSt6__ndk120__shared_ptr_pointerIPNS_13__empty_stateIcEENS_10shared_ptrIS2_E27__shared_ptr_default_deleteIS2_S2_EENS_9allocatorIS2_EEEE
0000000000154f50 V _ZTINSt6__ndk120__shared_ptr_pointerIPNS_13__empty_stateIwEENS_10shared_ptrIS2_E27__shared_ptr_default_deleteIS2_S2_EENS_9allocatorIS2_EEEE
00000000001543c0 V _ZTINSt6__ndk121__empty_non_own_stateIcEE
0000000000155550 V _ZTINSt6__ndk121__empty_non_own_stateIwEE
0000000000153fd0 V _ZTINSt6__ndk123__match_any_but_newlineIcEE
0000000000155160 V _ZTINSt6__ndk123__match_any_but_newlineIwEE
0000000000154258 V _ZTINSt6__ndk126__end_marked_subexpressionIcEE
00000000001553e8 V _ZTINSt6__ndk126__end_marked_subexpressionIwEE
0000000000154210 V _ZTINSt6__ndk128__begin_marked_subexpressionIcEE
00000000001553a0 V _ZTINSt6__ndk128__begin_marked_subexpressionIwEE
00000000001542b8 V _ZTINSt6__ndk16__loopIcEE
0000000000155448 V _ZTINSt6__ndk16__loopIwEE
0000000000153d60 V _ZTINSt6__ndk16__nodeIcEE
0000000000154ef0 V _ZTINSt6__ndk16__nodeIwEE
0000000000050002 V _ZTS13llm_tokenizer
000000000004f38b V _ZTS14llama_kv_cache
000000000004f39c V _ZTS14llama_memory_i
000000000004eb8f V _ZTS15llama_io_read_i
000000000004eb4d V _ZTS16llama_io_write_i
000000000004ebcc V _ZTS16llm_graph_result
000000000004eb22 V _ZTS17llm_graph_input_i
0000000000050012 V _ZTS17llm_tokenizer_bpe
000000000004ffee V _ZTS17llm_tokenizer_spm
000000000005003a V _ZTS17llm_tokenizer_ugm
0000000000050026 V _ZTS17llm_tokenizer_wpm
000000000004eba1 V _ZTS18llama_io_read_file
000000000004ebdf V _ZTS18llm_graph_result_i
000000000005004e V _ZTS18llm_tokenizer_rwkv
000000000004ebb6 V _ZTS19llama_io_write_file
000000000004f2b0 R _ZTS19llm_graph_input_cls
000000000004f22c R _ZTS19llm_graph_input_pos
000000000004eb78 V _ZTS20llama_io_read_buffer
000000000004eb36 V _ZTS20llama_io_write_dummy
000000000004f374 R _ZTS20llm_graph_input_embd
000000000004f299 R _ZTS20llm_graph_input_mean
000000000004eb60 V _ZTS21llama_io_write_buffer
000000000004f3ad R _ZTS22llama_kv_cache_unified
000000000004f2c6 R _ZTS22llm_graph_input_s_copy
000000000004f2df R _ZTS22llm_graph_input_s_mask
000000000004eb08 R _ZTS23llm_graph_input_k_shift
000000000004f27f R _ZTS23llm_graph_input_out_ids
000000000004f357 R _ZTS26llm_graph_input_attn_cross
000000000004f2f8 R _ZTS26llm_graph_input_cross_embd
000000000004f242 R _ZTS26llm_graph_input_pos_bucket
000000000004f315 R _ZTS29llm_graph_input_attn_no_cache
000000000004f25f R _ZTS29llm_graph_input_pos_bucket_kv
000000000004f335 R _ZTS31llm_graph_input_attn_kv_unified
000000000004f0c7 V _ZTSNSt6__ndk110__back_refIcEE
000000000005fbbf V _ZTSNSt6__ndk110__back_refIwEE
000000000004fc97 V _ZTSNSt6__ndk110__function6__baseIFP11ggml_tensorjiEEE
000000000004f967 V _ZTSNSt6__ndk110__function6__baseIFjjEEE
000000000004ec93 V _ZTSNSt6__ndk110__function6__baseIFvRK12llama_ubatchP11ggml_tensorPKciEEE
000000000004ee3e V _ZTSNSt6__ndk110shared_ptrINS_13__empty_stateIcEEE27__shared_ptr_default_deleteIS2_S2_EE
000000000005f936 V _ZTSNSt6__ndk110shared_ptrINS_13__empty_stateIwEEE27__shared_ptr_default_deleteIS2_S2_EE
000000000004f1ce V _ZTSNSt6__ndk111__alternateIcEE
000000000005fcc6 V _ZTSNSt6__ndk111__alternateIwEE
000000000004ed84 V _ZTSNSt6__ndk111__end_stateIcEE
000000000005f87c V _ZTSNSt6__ndk111__end_stateIwEE
000000000004ef71 V _ZTSNSt6__ndk111__lookaheadIcNS_12regex_traitsIcEEEE
000000000005fa69 V _ZTSNSt6__ndk111__lookaheadIwNS_12regex_traitsIwEEEE
000000000004f210 V _ZTSNSt6__ndk111__match_anyIcEE
000000000005fd08 V _ZTSNSt6__ndk111__match_anyIwEE
000000000004f03c V _ZTSNSt6__ndk112__match_charIcEE
000000000005fb34 V _ZTSNSt6__ndk112__match_charIwEE
000000000005f840 V _ZTSNSt6__ndk112codecvt_utf8IwLm1114111ELNS_12codecvt_modeE0EEE
000000000004ee93 V _ZTSNSt6__ndk113__empty_stateIcEE
000000000005f98b V _ZTSNSt6__ndk113__empty_stateIwEE
000000000004eed2 V _ZTSNSt6__ndk115__has_one_stateIcEE
000000000005f9ca V _ZTSNSt6__ndk115__has_one_stateIwEE
000000000004ef3c V _ZTSNSt6__ndk115__word_boundaryIcNS_12regex_traitsIcEEEE
000000000005fa34 V _ZTSNSt6__ndk115__word_boundaryIwNS_12regex_traitsIwEEEE
000000000004f059 V _ZTSNSt6__ndk116__back_ref_icaseIcNS_12regex_traitsIcEEEE
000000000005fb51 V _ZTSNSt6__ndk116__back_ref_icaseIwNS_12regex_traitsIwEEEE
000000000004eeb1 V _ZTSNSt6__ndk116__owns_one_stateIcEE
000000000005f9a9 V _ZTSNSt6__ndk116__owns_one_stateIwEE
000000000004f18a V _ZTSNSt6__ndk117__owns_two_statesIcEE
000000000005fc82 V _ZTSNSt6__ndk117__owns_two_statesIwEE
000000000004f1ac V _ZTSNSt6__ndk117__repeat_one_loopIcEE
000000000005fca4 V _ZTSNSt6__ndk117__repeat_one_loopIwEE
000000000004ebf4 V _ZTSNSt6__ndk117bad_function_callE
000000000004f08f V _ZTSNSt6__ndk118__back_ref_collateIcNS_12regex_traitsIcEEEE
000000000005fb87 V _ZTSNSt6__ndk118__back_ref_collateIwNS_12regex_traitsIwEEEE
000000000004efca V _ZTSNSt6__ndk118__match_char_icaseIcNS_12regex_traitsIcEEEE
000000000005fac2 V _ZTSNSt6__ndk118__match_char_icaseIwNS_12regex_traitsIwEEEE
000000000004f0e2 V _ZTSNSt6__ndk120__bracket_expressionIcNS_12regex_traitsIcEEEE
000000000005fbda V _ZTSNSt6__ndk120__bracket_expressionIwNS_12regex_traitsIwEEEE
000000000004eef2 V _ZTSNSt6__ndk120__l_anchor_multilineIcEE
000000000005f9ea V _ZTSNSt6__ndk120__l_anchor_multilineIwEE
000000000004f002 V _ZTSNSt6__ndk120__match_char_collateIcNS_12regex_traitsIcEEEE
000000000005fafa V _ZTSNSt6__ndk120__match_char_collateIwNS_12regex_traitsIwEEEE
000000000004ef17 V _ZTSNSt6__ndk120__r_anchor_multilineIcEE
000000000005fa0f V _ZTSNSt6__ndk120__r_anchor_multilineIwEE
000000000004edb6 V _ZTSNSt6__ndk120__shared_ptr_pointerIPNS_13__empty_stateIcEENS_10shared_ptrIS2_E27__shared_ptr_default_deleteIS2_S2_EENS_9allocatorIS2_EEEE
000000000005f8ae V _ZTSNSt6__ndk120__shared_ptr_pointerIPNS_13__empty_stateIwEENS_10shared_ptrIS2_E27__shared_ptr_default_deleteIS2_S2_EENS_9allocatorIS2_EEEE
000000000004f1ea V _ZTSNSt6__ndk121__empty_non_own_stateIcEE
000000000005fce2 V _ZTSNSt6__ndk121__empty_non_own_stateIwEE
000000000004efa2 V _ZTSNSt6__ndk123__match_any_but_newlineIcEE
000000000005fa9a V _ZTSNSt6__ndk123__match_any_but_newlineIwEE
000000000004f149 V _ZTSNSt6__ndk126__end_marked_subexpressionIcEE
000000000005fc41 V _ZTSNSt6__ndk126__end_marked_subexpressionIwEE
000000000004f11c V _ZTSNSt6__ndk128__begin_marked_subexpressionIcEE
000000000005fc14 V _ZTSNSt6__ndk128__begin_marked_subexpressionIwEE
000000000004f174 V _ZTSNSt6__ndk16__loopIcEE
000000000005fc6c V _ZTSNSt6__ndk16__loopIwEE
000000000004eda0 V _ZTSNSt6__ndk16__nodeIcEE
000000000005f898 V _ZTSNSt6__ndk16__nodeIwEE
0000000000153bf8 V _ZTV16llm_graph_result
0000000000154d28 V _ZTV17llm_tokenizer_bpe
0000000000154ce0 V _ZTV17llm_tokenizer_spm
0000000000154d98 V _ZTV17llm_tokenizer_ugm
0000000000154d60 V _ZTV17llm_tokenizer_wpm
0000000000153b58 V _ZTV18llama_io_read_file
0000000000154dd0 V _ZTV18llm_tokenizer_rwkv
0000000000153ba8 V _ZTV19llama_io_write_file
0000000000154560 D _ZTV19llm_graph_input_cls
0000000000154420 D _ZTV19llm_graph_input_pos
0000000000153af8 V _ZTV20llama_io_read_buffer
0000000000153a48 V _ZTV20llama_io_write_dummy
0000000000154720 D _ZTV20llm_graph_input_embd
0000000000154520 D _ZTV20llm_graph_input_mean
0000000000153aa8 V _ZTV21llama_io_write_buffer
0000000000154760 D _ZTV22llama_kv_cache_unified
00000000001545a0 D _ZTV22llm_graph_input_s_copy
00000000001545e0 D _ZTV22llm_graph_input_s_mask
00000000001539f8 D _ZTV23llm_graph_input_k_shift
00000000001544e0 D _ZTV23llm_graph_input_out_ids
00000000001546e0 D _ZTV26llm_graph_input_attn_cross
0000000000154620 D _ZTV26llm_graph_input_cross_embd
0000000000154460 D _ZTV26llm_graph_input_pos_bucket
0000000000154660 D _ZTV29llm_graph_input_attn_no_cache
00000000001544a0 D _ZTV29llm_graph_input_pos_bucket_kv
00000000001546a0 D _ZTV31llm_graph_input_attn_kv_unified
0000000000154150 V _ZTVNSt6__ndk110__back_refIcEE
00000000001552e0 V _ZTVNSt6__ndk110__back_refIwEE
0000000000154348 V _ZTVNSt6__ndk111__alternateIcEE
00000000001554d8 V _ZTVNSt6__ndk111__alternateIwEE
0000000000153d30 V _ZTVNSt6__ndk111__end_stateIcEE
0000000000154ec0 V _ZTVNSt6__ndk111__end_stateIwEE
0000000000153f58 V _ZTVNSt6__ndk111__lookaheadIcNS_12regex_traitsIcEEEE
00000000001550e8 V _ZTVNSt6__ndk111__lookaheadIwNS_12regex_traitsIwEEEE
00000000001543d8 V _ZTVNSt6__ndk111__match_anyIcEE
0000000000155568 V _ZTVNSt6__ndk111__match_anyIwEE
0000000000154078 V _ZTVNSt6__ndk112__match_charIcEE
0000000000155208 V _ZTVNSt6__ndk112__match_charIwEE
0000000000154e48 V _ZTVNSt6__ndk112codecvt_utf8IwLm1114111ELNS_12codecvt_modeE0EEE
0000000000153dd8 V _ZTVNSt6__ndk113__empty_stateIcEE
0000000000154f68 V _ZTVNSt6__ndk113__empty_stateIwEE
0000000000153f10 V _ZTVNSt6__ndk115__word_boundaryIcNS_12regex_traitsIcEEEE
00000000001550a0 V _ZTVNSt6__ndk115__word_boundaryIwNS_12regex_traitsIwEEEE
00000000001540c0 V _ZTVNSt6__ndk116__back_ref_icaseIcNS_12regex_traitsIcEEEE
0000000000155250 V _ZTVNSt6__ndk116__back_ref_icaseIwNS_12regex_traitsIwEEEE
0000000000153e50 V _ZTVNSt6__ndk116__owns_one_stateIcEE
0000000000154fe0 V _ZTVNSt6__ndk116__owns_one_stateIwEE
00000000001542d0 V _ZTVNSt6__ndk117__owns_two_statesIcEE
0000000000155460 V _ZTVNSt6__ndk117__owns_two_statesIwEE
0000000000154300 V _ZTVNSt6__ndk117__repeat_one_loopIcEE
0000000000155490 V _ZTVNSt6__ndk117__repeat_one_loopIwEE
0000000000153c78 V _ZTVNSt6__ndk117bad_function_callE
0000000000154108 V _ZTVNSt6__ndk118__back_ref_collateIcNS_12regex_traitsIcEEEE
0000000000155298 V _ZTVNSt6__ndk118__back_ref_collateIwNS_12regex_traitsIwEEEE
0000000000153fe8 V _ZTVNSt6__ndk118__match_char_icaseIcNS_12regex_traitsIcEEEE
0000000000155178 V _ZTVNSt6__ndk118__match_char_icaseIwNS_12regex_traitsIwEEEE
0000000000154198 V _ZTVNSt6__ndk120__bracket_expressionIcNS_12regex_traitsIcEEEE
0000000000155328 V _ZTVNSt6__ndk120__bracket_expressionIwNS_12regex_traitsIwEEEE
0000000000153e80 V _ZTVNSt6__ndk120__l_anchor_multilineIcEE
0000000000155010 V _ZTVNSt6__ndk120__l_anchor_multilineIwEE
0000000000154030 V _ZTVNSt6__ndk120__match_char_collateIcNS_12regex_traitsIcEEEE
00000000001551c0 V _ZTVNSt6__ndk120__match_char_collateIwNS_12regex_traitsIwEEEE
0000000000153ec8 V _ZTVNSt6__ndk120__r_anchor_multilineIcEE
0000000000155058 V _ZTVNSt6__ndk120__r_anchor_multilineIwEE
0000000000153d88 V _ZTVNSt6__ndk120__shared_ptr_pointerIPNS_13__empty_stateIcEENS_10shared_ptrIS2_E27__shared_ptr_default_deleteIS2_S2_EENS_9allocatorIS2_EEEE
0000000000154f18 V _ZTVNSt6__ndk120__shared_ptr_pointerIPNS_13__empty_stateIwEENS_10shared_ptrIS2_E27__shared_ptr_default_deleteIS2_S2_EENS_9allocatorIS2_EEEE
0000000000154390 V _ZTVNSt6__ndk121__empty_non_own_stateIcEE
0000000000155520 V _ZTVNSt6__ndk121__empty_non_own_stateIwEE
0000000000153fa0 V _ZTVNSt6__ndk123__match_any_but_newlineIcEE
0000000000155130 V _ZTVNSt6__ndk123__match_any_but_newlineIwEE
0000000000154228 V _ZTVNSt6__ndk126__end_marked_subexpressionIcEE
00000000001553b8 V _ZTVNSt6__ndk126__end_marked_subexpressionIwEE
00000000001541e0 V _ZTVNSt6__ndk128__begin_marked_subexpressionIcEE
0000000000155370 V _ZTVNSt6__ndk128__begin_marked_subexpressionIwEE
0000000000154270 V _ZTVNSt6__ndk16__loopIcEE
0000000000155400 V _ZTVNSt6__ndk16__loopIwEE
0000000000080610 T llama_adapter_lora_free
000000000007ecf4 T llama_adapter_lora_init
0000000000129a48 T llama_add_bos_token
0000000000129a54 T llama_add_eos_token
000000000009a908 T llama_apply_adapter_cvec
000000000009a464 T llama_attach_threadpool
000000000007bc1c T llama_backend_free
000000000007bb54 T llama_backend_init
0000000000088a54 T llama_batch_free
0000000000088968 T llama_batch_get_one
0000000000088984 T llama_batch_init
000000000007ce50 T llama_chat_apply_template
0000000000090858 T llama_chat_builtin_templates
000000000009a88c T llama_clear_adapter_lora
000000000009a160 T llama_context_default_params
000000000009aac4 T llama_copy_state_data
000000000009af80 T llama_decode
000000000009a4b8 T llama_detach_threadpool
0000000000129ab4 T llama_detokenize
000000000009af3c T llama_encode
000000000009a3fc T llama_free
00000000000ea924 T llama_free_model
000000000009a674 T llama_get_embeddings
000000000009a6a0 T llama_get_embeddings_ith
000000000009a6cc T llama_get_embeddings_seq
000000000009aa08 T llama_get_kv_cache_token_count
000000000009aa18 T llama_get_kv_cache_used_cells
000000000009a450 T llama_get_kv_self
000000000009a61c T llama_get_logits
000000000009a648 T llama_get_logits_ith
000000000009a448 T llama_get_model
000000000009aabc T llama_get_state_size
000000000009a194 T llama_init_from_model
000000000009aaa8 T llama_kv_cache_can_shift
000000000009aa28 T llama_kv_cache_clear
000000000009aa98 T llama_kv_cache_defrag
000000000009aa68 T llama_kv_cache_seq_add
000000000009aa48 T llama_kv_cache_seq_cp
000000000009aa78 T llama_kv_cache_seq_div
000000000009aa58 T llama_kv_cache_seq_keep
000000000009aa88 T llama_kv_cache_seq_pos_max
000000000009aa38 T llama_kv_cache_seq_rm
000000000009aab8 T llama_kv_cache_update
00000000000c012c T llama_kv_cache_view_free
000000000009a990 T llama_kv_cache_view_init
000000000009a9dc T llama_kv_cache_view_update
000000000009aab0 T llama_kv_self_can_shift
000000000009aa30 T llama_kv_self_clear
000000000009aaa0 T llama_kv_self_defrag
000000000009aa10 T llama_kv_self_n_tokens
000000000009aa70 T llama_kv_self_seq_add
000000000009aa50 T llama_kv_self_seq_cp
000000000009aa80 T llama_kv_self_seq_div
000000000009aa60 T llama_kv_self_seq_keep
000000000009aa90 T llama_kv_self_seq_pos_max
000000000009aa40 T llama_kv_self_seq_rm
000000000009a458 T llama_kv_self_update
000000000009aa20 T llama_kv_self_used_cells
000000000007bc24 T llama_load_model_from_file
000000000009ab9c T llama_load_session_file
00000000000ba788 T llama_log_set
000000000007bab8 T llama_max_devices
00000000000eadd0 T llama_model_chat_template
00000000000eaef4 T llama_model_decoder_start_token
00000000000ea8fc T llama_model_default_params
00000000000eacd0 T llama_model_desc
00000000000ea950 T llama_model_free
00000000000ea918 T llama_model_get_vocab
00000000000eaee4 T llama_model_has_decoder
00000000000eaed0 T llama_model_has_encoder
00000000000eaefc T llama_model_is_recurrent
000000000007bc7c T llama_model_load_from_file
000000000007cc08 T llama_model_load_from_splits
00000000000eac00 T llama_model_meta_count
00000000000eac08 T llama_model_meta_key_by_index
00000000000ea9d8 T llama_model_meta_val_str
00000000000eac6c T llama_model_meta_val_str_by_index
00000000000ea97c T llama_model_n_ctx_train
00000000000ea984 T llama_model_n_embd
00000000000ea994 T llama_model_n_head
00000000000ea9a0 T llama_model_n_head_kv
00000000000ea98c T llama_model_n_layer
00000000000eaec4 T llama_model_n_params
00000000001024bc T llama_model_quantize
0000000000102490 T llama_model_quantize_default_params
00000000000ea9d0 T llama_model_rope_freq_scale_train
00000000000d03ec T llama_model_rope_type
00000000000eadc4 T llama_model_size
000000000009a430 T llama_n_batch
000000000009a428 T llama_n_ctx
00000000000ea9ac T llama_n_ctx_train
00000000000ea9b4 T llama_n_embd
00000000000ea9c4 T llama_n_head
00000000000ea9bc T llama_n_layer
000000000009a440 T llama_n_seq_max
000000000009a548 T llama_n_threads
000000000009a550 T llama_n_threads_batch
000000000009a438 T llama_n_ubatch
00000000001295a8 T llama_n_vocab
000000000009a38c T llama_new_context_with_model
000000000007bbac T llama_numa_init
000000000009afc4 T llama_perf_context
000000000009b018 T llama_perf_context_print
000000000009b164 T llama_perf_context_reset
000000000010b714 T llama_perf_sampler
000000000010b77c T llama_perf_sampler_print
000000000010b810 T llama_perf_sampler_reset
000000000009a45c T llama_pooling_type
000000000007d52c T llama_print_system_info
000000000009a7e4 T llama_rm_adapter_lora
00000000001090b0 T llama_sampler_accept
00000000001090c4 T llama_sampler_apply
0000000000109564 T llama_sampler_chain_add
000000000007bab0 T llama_sampler_chain_default_params
00000000001096e4 T llama_sampler_chain_get
0000000000109514 T llama_sampler_chain_init
0000000000109798 T llama_sampler_chain_n
0000000000109710 T llama_sampler_chain_remove
0000000000109110 T llama_sampler_clone
000000000010916c T llama_sampler_free
000000000010b658 T llama_sampler_get_seed
0000000000109068 T llama_sampler_init
00000000001097d0 T llama_sampler_init_dist
000000000010a570 T llama_sampler_init_dry
0000000000109dcc T llama_sampler_init_grammar
000000000010a3d4 T llama_sampler_init_grammar_lazy
000000000010a408 T llama_sampler_init_grammar_lazy_patterns
00000000001097ac T llama_sampler_init_greedy
000000000010b520 T llama_sampler_init_infill
000000000010b45c T llama_sampler_init_logit_bias
0000000000109a7c T llama_sampler_init_min_p
0000000000109c68 T llama_sampler_init_mirostat
0000000000109d28 T llama_sampler_init_mirostat_v2
000000000010a444 T llama_sampler_init_penalties
00000000001099c8 T llama_sampler_init_softmax
0000000000109b1c T llama_sampler_init_temp
0000000000109b64 T llama_sampler_init_temp_ext
00000000001099ec T llama_sampler_init_top_k
000000000010a528 T llama_sampler_init_top_n_sigma
0000000000109a2c T llama_sampler_init_top_p
0000000000109acc T llama_sampler_init_typical
0000000000109bc0 T llama_sampler_init_xtc
0000000000109094 T llama_sampler_name
00000000001090fc T llama_sampler_reset
00000000001091a4 T llama_sampler_sample
000000000009ac68 T llama_save_session_file
0000000000093c70 T llama_set_abort_callback
000000000009a744 T llama_set_adapter_lora
000000000009a598 T llama_set_causal_attn
000000000009a558 T llama_set_embeddings
000000000009a4f8 T llama_set_n_threads
000000000009ab30 T llama_set_state_data
000000000009a5d8 T llama_set_warmup
000000000007d0bc T llama_split_path
000000000007d1ac T llama_split_prefix
000000000009aaf4 T llama_state_get_data
000000000009aac0 T llama_state_get_size
000000000009aba0 T llama_state_load_file
000000000009ac6c T llama_state_save_file
000000000009ad24 T llama_state_seq_get_data
000000000009ad20 T llama_state_seq_get_size
000000000009ae70 T llama_state_seq_load_file
000000000009adac T llama_state_seq_save_file
000000000009ad68 T llama_state_seq_set_data
000000000009ab60 T llama_state_set_data
000000000007bae0 T llama_supports_gpu_offload
000000000007bad0 T llama_supports_mlock
000000000007bac0 T llama_supports_mmap
000000000007bb30 T llama_supports_rpc
000000000009a618 T llama_synchronize
000000000007bc20 T llama_time_us
00000000001299f4 T llama_token_bos
0000000000129a18 T llama_token_cls
0000000000129a00 T llama_token_eos
0000000000129a0c T llama_token_eot
0000000000129a78 T llama_token_fim_mid
0000000000129a84 T llama_token_fim_pad
0000000000129a60 T llama_token_fim_pre
0000000000129a90 T llama_token_fim_rep
0000000000129a9c T llama_token_fim_sep
0000000000129a6c T llama_token_fim_suf
00000000001298fc T llama_token_get_attr
00000000001298a0 T llama_token_get_score
0000000000129838 T llama_token_get_text
00000000001299a8 T llama_token_is_control
0000000000129958 T llama_token_is_eog
0000000000129a30 T llama_token_nl
0000000000129a3c T llama_token_pad
0000000000129a24 T llama_token_sep
0000000000129aac T llama_token_to_piece
0000000000129aa8 T llama_tokenize
0000000000129784 T llama_vocab_bos
00000000001297a8 T llama_vocab_cls
0000000000129790 T llama_vocab_eos
000000000012979c T llama_vocab_eot
0000000000129808 T llama_vocab_fim_mid
0000000000129814 T llama_vocab_fim_pad
00000000001297f0 T llama_vocab_fim_pre
0000000000129820 T llama_vocab_fim_rep
000000000012982c T llama_vocab_fim_sep
00000000001297fc T llama_vocab_fim_suf
00000000001297d8 T llama_vocab_get_add_bos
00000000001297e4 T llama_vocab_get_add_eos
000000000012968c T llama_vocab_get_attr
0000000000129630 T llama_vocab_get_score
00000000001295c8 T llama_vocab_get_text
0000000000129738 T llama_vocab_is_control
00000000001296e8 T llama_vocab_is_eog
0000000000129594 T llama_vocab_n_tokens
00000000001297c0 T llama_vocab_nl
00000000001297cc T llama_vocab_pad
00000000001297b4 T llama_vocab_sep
00000000001295bc T llama_vocab_type
0000000000154e18 D unicode_map_lowercase
0000000000154e28 D unicode_map_uppercase
0000000000154e08 D unicode_ranges_flags
0000000000154e38 D unicode_ranges_nfd
00000000001591c0 B unicode_set_whitespace
